(lp0
(dp1
S'bad'
p2
(lp3
I54897
aI54898
aI54899
aI54900
aI54901
aI54902
aI54903
aI54904
aI54905
aI54906
aI54907
aI54908
aI54909
aI54910
aI54911
aI54912
aI54913
aI54914
aI54915
asS'good'
p4
(lp5
I54896
asS'question'
p6
(lp7
I78
aI10
aI171697
aI55
aI6783
aI866
aI37
asS'question_id'
p8
I1
sa(dp9
g2
(lp10
I54925
aI54926
aI54927
aI54928
aI54929
aI54930
aI54931
aI54932
aI54933
aI54934
aI54935
aI54936
aI54937
aI54938
aI54939
aI54940
aI54941
aI54942
aI54943
aI54944
aI54945
aI54946
aI54947
aI54948
aI54949
aI54950
aI54951
aI54952
aI54953
aI54954
aI54955
aI54956
aI54957
aI54958
aI54959
aI54960
aI54961
aI54962
aI54963
aI54964
aI54965
aI54966
aI54967
aI54968
aI54969
aI54970
aI54971
aI54972
aI54973
aI54974
asg4
(lp11
I54916
aI54917
aI54918
aI54919
aI54920
aI54921
aI54922
aI54923
aI54924
asg6
(lp12
I78
aI10
aI2
aI288
aI5
aI183709
aI20
aI397
aI37
asg8
I2
sa(dp13
g2
(lp14
I54977
aI54978
aI54979
aI54980
aI54981
aI54982
aI54983
aI54984
aI54985
aI54986
aI54987
asg4
(lp15
I54975
aI54976
asg6
(lp16
I78
aI918
aI304
aI10
aI183709
aI19
aI37
asg8
I3
sa(dp17
g2
(lp18
I54989
aI54990
aI54991
asg4
(lp19
I54988
asg6
(lp20
I161
aI30
aI183709
aI1189
aI37
asg8
I4
sa(dp21
g2
(lp22
I54995
aI54996
aI54997
aI54998
aI54999
aI55000
aI55001
aI55002
aI55003
aI55004
aI55005
aI55006
aI55007
aI55008
aI55009
aI55010
aI55011
aI55012
aI55013
aI55014
aI55015
asg4
(lp23
I54992
aI54993
aI54994
asg6
(lp24
I82
aI30
aI2
aI92426
aI394441
aI36367
aI2890
aI37
asg8
I5
sa(dp25
g2
(lp26
I55020
aI55021
asg4
(lp27
I55016
aI55017
aI55018
aI55019
asg6
(lp28
I104
aI466
aI154
aI2
aI92426
aI394441
aI36367
aI1399
aI2
aI2248
aI37
asg8
I6
sa(dp29
g2
(lp30
I55026
aI55027
aI55028
aI55029
aI55030
aI55031
aI55032
aI55033
aI55034
aI55035
aI55036
aI55037
aI55038
aI55039
aI55040
aI55041
aI55042
aI55043
aI55044
aI55045
aI55046
aI55047
aI55048
aI55049
aI55050
aI55051
aI55052
aI55053
aI55054
aI55055
aI55056
aI55057
aI55058
aI55059
aI55060
aI55061
aI55062
asg4
(lp31
I55022
aI55023
aI55024
aI55025
asg6
(lp32
I82
aI127
aI15078
aI19661
aI2086
aI37
asg8
I7
sa(dp33
g2
(lp34
I55065
aI55066
aI55067
aI55068
asg4
(lp35
I55063
aI55064
asg6
(lp36
I104
aI127
aI15078
aI19661
aI2086
aI37
asg8
I8
sa(dp37
g2
(lp38
I55070
asg4
(lp39
I55069
asg6
(lp40
I67
aI30
aI2
aI106
aI603
aI15
aI15078
aI19661
aI30
aI7
aI37
asg8
I9
sa(dp41
g2
(lp42
I55077
aI55078
aI55079
aI55080
aI55081
aI55082
aI55083
aI55084
aI55085
aI55086
aI55087
aI55088
aI55089
aI55090
aI55091
aI55092
aI55093
aI55094
aI55095
aI55096
aI55097
asg4
(lp43
I55071
aI55072
aI55073
aI55074
aI55075
aI55076
asg6
(lp44
I78
aI154
aI138454
aI1333
aI11
aI37
asg8
I10
sa(dp45
g2
(lp46
I55100
aI55101
aI55102
aI55103
aI55104
aI55105
aI55106
asg4
(lp47
I55098
aI55099
asg6
(lp48
I82
aI30
aI2
aI1503
aI138454
aI510
aI37
asg8
I11
sa(dp49
g2
(lp50
I55108
asg4
(lp51
I55107
asg6
(lp52
I161
aI10
aI138454
aI20
aI8661
aI37
asg8
I12
sa(dp53
g2
(lp54
I55114
aI55115
aI55116
asg4
(lp55
I55109
aI55110
aI55111
aI55112
aI55113
asg6
(lp56
I74
aI10
aI138454
aI20
aI306
aI1541
aI32
aI65924
aI37
asg8
I13
sa(dp57
g2
(lp58
I55119
aI55120
aI55121
aI55122
aI55123
aI55124
asg4
(lp59
I55117
aI55118
asg6
(lp60
I104
aI228
aI154
aI51
aI746
aI28
aI6
aI102002
aI15993
aI37
asg8
I14
sa(dp61
g2
(lp62
I55142
aI55143
aI55144
aI55145
aI55146
aI55147
aI55148
aI55149
aI55150
aI55151
aI55152
aI55153
aI55154
aI55155
aI55156
aI55157
aI55158
aI55159
aI55160
asg4
(lp63
I55125
aI55126
aI55127
aI55128
aI55129
aI55130
aI55131
aI55132
aI55133
aI55134
aI55135
aI55136
aI55137
aI55138
aI55139
aI55140
aI55141
asg6
(lp64
I161
aI47
aI102002
aI10603
aI746
aI37
asg8
I15
sa(dp65
g2
(lp66
sg4
(lp67
I55161
asg6
(lp68
I78
aI522
aI5
aI2479
aI10
aI39
aI275860
aI37
asg8
I16
sa(dp69
g2
(lp70
I55171
aI55172
aI55173
aI55174
aI55175
aI55176
aI55177
aI55178
aI55179
aI55180
aI55181
aI55182
aI55183
aI55184
aI55185
aI55186
aI55187
aI55188
aI55189
aI55190
aI55191
aI55192
aI55193
aI55194
aI55195
aI55196
aI55197
aI55198
aI55199
aI55200
aI55201
aI55202
aI55203
aI55204
aI55205
aI55206
aI55207
aI55208
aI55209
aI55210
aI55211
aI55212
aI55213
aI55214
aI55215
aI55216
aI55217
aI55218
aI55219
aI55220
aI55221
aI55222
aI55223
aI55224
aI55225
aI55226
aI55227
aI55228
aI55229
aI55230
aI55231
aI55232
aI55233
aI55234
aI55235
aI55236
aI55237
aI55238
aI55239
aI55240
aI55241
aI55242
aI55243
aI55244
aI55245
aI55246
aI55247
aI55248
aI55249
aI55250
aI55251
aI55252
aI55253
asg4
(lp71
I55162
aI55163
aI55164
aI55165
aI55166
aI55167
aI55168
aI55169
aI55170
asg6
(lp72
I74
aI4738
aI2
aI536
aI83213
aI1503
aI37
asg8
I17
sa(dp73
g2
(lp74
I55257
asg4
(lp75
I55254
aI55255
aI55256
asg6
(lp76
I82
aI30
aI2
aI536
aI83213
aI4738
aI37
asg8
I18
sa(dp77
g2
(lp78
I55260
aI55261
asg4
(lp79
I55258
aI55259
asg6
(lp80
I161
aI30
aI2
aI536
aI83213
aI4738
aI37
asg8
I19
sa(dp81
g2
(lp82
I55264
aI55265
aI55266
aI55267
aI55268
aI55269
aI55270
aI55271
aI55272
aI55273
aI55274
aI55275
aI55276
aI55277
aI55278
aI55279
aI55280
aI55281
aI55282
aI55283
aI55284
aI55285
aI55286
aI55287
aI55288
aI55289
aI55290
aI55291
aI55292
asg4
(lp83
I55262
aI55263
asg6
(lp84
I78
aI10
aI8961
aI18100
aI47290
aI20
aI772
aI5
aI336
aI37
asg8
I20
sa(dp85
g2
(lp86
I55299
aI55300
aI55301
aI55302
aI55303
aI55304
aI55305
aI55306
aI55307
aI55308
aI55309
aI55310
aI55311
aI55312
aI55313
aI55314
asg4
(lp87
I55293
aI55294
aI55295
aI55296
aI55297
aI55298
asg6
(lp88
I78
aI23
aI150201
aI171
aI5
aI37
asg8
I21
sa(dp89
g2
(lp90
I55319
aI55320
aI55321
aI55322
aI55323
aI55324
aI55325
aI55326
aI55327
aI55328
aI55329
aI55330
aI55331
asg4
(lp91
I55315
aI55316
aI55317
aI55318
asg6
(lp92
I74
aI2890
aI150201
aI37
asg8
I22
sa(dp93
g2
(lp94
I55338
aI55339
aI55340
aI55341
aI55342
aI55343
aI55344
aI55345
aI55346
aI55347
aI55348
asg4
(lp95
I55332
aI55333
aI55334
aI55335
aI55336
aI55337
asg6
(lp96
I74
aI10
aI2
aI896
aI4864
aI65
aI9263
aI7
aI51896
aI37
asg8
I23
sa(dp97
g2
(lp98
I55351
aI55352
aI55353
aI55354
aI55355
aI55356
aI55357
aI55358
aI55359
aI55360
aI55361
aI55362
aI55363
aI55364
aI55365
aI55366
aI55367
aI55368
aI55369
aI55370
aI55371
aI55372
aI55373
aI55374
aI55375
aI55376
aI55377
aI55378
aI55379
aI55380
asg4
(lp99
I55349
aI55350
asg6
(lp100
I78
aI772
aI5
aI336
aI154
aI51896
aI330
aI37
asg8
I24
sa(dp101
g2
(lp102
I55382
aI55383
aI55384
aI55385
aI55386
aI55387
aI55388
aI55389
aI55390
aI55391
aI55392
aI55393
asg4
(lp103
I55381
asg6
(lp104
I78
aI732
aI10
aI944462
aI3
aI189415
aI7
aI37
asg8
I25
sa(dp105
g2
(lp106
I55396
aI55397
aI55398
aI55399
asg4
(lp107
I55394
aI55395
asg6
(lp108
I161
aI10
aI2
aI304
aI944462
aI3
aI189415
aI878
aI37
asg8
I26
sa(dp109
g2
(lp110
I55402
aI55403
aI55404
aI55405
aI55406
aI55407
asg4
(lp111
I55400
aI55401
asg6
(lp112
I78
aI10
aI944462
aI3
aI189415
aI20
aI1838
aI3640
aI37
asg8
I27
sa(dp113
g2
(lp114
I55410
aI55411
aI55412
aI55413
aI55414
aI55415
aI55416
asg4
(lp115
I55408
aI55409
asg6
(lp116
I78
aI667
aI3043
aI10067
aI10067
aI472224
aI37
asg8
I28
sa(dp117
g2
(lp118
I55425
aI55426
aI55427
aI55428
aI55429
aI55430
asg4
(lp119
I55417
aI55418
aI55419
aI55420
aI55421
aI55422
aI55423
aI55424
asg6
(lp120
I78
aI4893
aI10
aI183
aI28
aI10067
aI10067
aI472224
aI55
aI1290
aI37
asg8
I29
sa(dp121
g2
(lp122
I55434
aI55435
aI55436
aI55437
aI55438
asg4
(lp123
I55431
aI55432
aI55433
asg6
(lp124
I4
aI78
aI8727
aI1343
aI154
aI10067
aI10067
aI472224
aI6842
aI37
asg8
I30
sa(dp125
g2
(lp126
I55440
aI55441
aI55442
asg4
(lp127
I55439
asg6
(lp128
I199617
aI10
aI2
aI3453
aI5
aI78
aI37
asg8
I31
sa(dp129
g2
(lp130
I55444
aI55445
aI55446
aI55447
aI55448
asg4
(lp131
I55443
asg6
(lp132
I78
aI472
aI10
aI199617
aI1677
aI19
aI37
asg8
I32
sa(dp133
g2
(lp134
sg4
(lp135
I55449
aI55450
aI55451
asg6
(lp136
I74
aI30
aI199617
aI20
aI1210
aI37
asg8
I33
sa(dp137
g2
(lp138
sg4
(lp139
I55452
aI55453
asg6
(lp140
I74
aI30
aI199617
aI20
aI1440
aI37
asg8
I34
sa(dp141
g2
(lp142
I55455
aI55456
asg4
(lp143
I55454
asg6
(lp144
I78
aI10
aI2
aI2000
aI16209
aI5
aI6
aI43341
aI37
asg8
I35
sa(dp145
g2
(lp146
I55462
aI55463
aI55464
aI55465
asg4
(lp147
I55457
aI55458
aI55459
aI55460
aI55461
asg6
(lp148
I104
aI10
aI43341
aI2926
aI37
asg8
I36
sa(dp149
g2
(lp150
I55471
aI55472
aI55473
aI55474
aI55475
aI55476
aI55477
aI55478
aI55479
aI55480
aI55481
aI55482
aI55483
aI55484
aI55485
aI55486
aI55487
aI55488
aI55489
aI55490
aI55491
aI55492
aI55493
aI55494
aI55495
aI55496
aI55497
aI55498
aI55499
aI55500
aI55501
aI55502
aI55503
aI55504
aI55505
aI55506
aI55507
aI55508
aI55509
aI55510
aI55511
aI55512
aI55513
aI55514
aI55515
aI55516
aI55517
aI55518
aI55519
aI55520
aI55521
aI55522
aI55523
aI55524
aI55525
asg4
(lp151
I55466
aI55467
aI55468
aI55469
aI55470
asg6
(lp152
I82
aI30
aI2
aI1102
aI3750
aI1284
aI1976
aI37
asg8
I37
sa(dp153
g2
(lp154
I55531
aI55532
aI55533
asg4
(lp155
I55526
aI55527
aI55528
aI55529
aI55530
asg6
(lp156
I78
aI522
aI5
aI1220
aI154
aI2
aI1102
aI3750
aI1284
aI390
aI37
asg8
I38
sa(dp157
g2
(lp158
I55535
aI55536
aI55537
aI55538
asg4
(lp159
I55534
asg6
(lp160
I74
aI10
aI2
aI8597
aI5
aI2
aI1102
aI3750
aI1284
aI37
asg8
I39
sa(dp161
g2
(lp162
I55545
aI55546
aI55547
aI55548
aI55549
aI55550
aI55551
aI55552
aI55553
aI55554
asg4
(lp163
I55539
aI55540
aI55541
aI55542
aI55543
aI55544
asg6
(lp164
I78
aI4101
aI171974
aI943
aI171974
aI127
aI21518
aI55388
aI124732
aI813
aI37
asg8
I40
sa(dp165
g2
(lp166
sg4
(lp167
I55555
asg6
(lp168
I74
aI1868
aI55388
aI124732
aI4
aI176
aI2
aI1108
aI316
aI37
asg8
I41
sa(dp169
g2
(lp170
I55560
aI55561
aI55562
aI55563
aI55564
aI55565
aI55566
asg4
(lp171
I55556
aI55557
aI55558
aI55559
asg6
(lp172
I78
aI522
aI5
aI6
aI551
aI10
aI6
aI130399
aI37
asg8
I42
sa(dp173
g2
(lp174
I55572
aI55573
aI55574
aI55575
aI55576
aI55577
aI55578
aI55579
asg4
(lp175
I55567
aI55568
aI55569
aI55570
aI55571
asg6
(lp176
I19
aI78
aI472
aI23
aI2
aI130399
aI1677
aI37
asg8
I43
sa(dp177
g2
(lp178
I55581
aI55582
aI55583
aI55584
aI55585
aI55586
aI55587
aI55588
asg4
(lp179
I55580
asg6
(lp180
I82
aI30
aI2
aI106
aI130399
aI4738
aI37
asg8
I44
sa(dp181
g2
(lp182
I55590
aI55591
aI55592
aI55593
aI55594
aI55595
aI55596
aI55597
asg4
(lp183
I55589
asg6
(lp184
I161
aI30
aI2
aI106
aI130399
aI4738
aI37
asg8
I45
sa(dp185
g2
(lp186
sg4
(lp187
I55598
asg6
(lp188
I104
aI142
aI171974
aI23
aI83
aI117
aI37
asg8
I46
sa(dp189
g2
(lp190
I55607
aI55608
aI55609
aI55610
aI55611
aI55612
aI55613
aI55614
aI55615
aI55616
aI55617
aI55618
aI55619
aI55620
aI55621
aI55622
aI55623
aI55624
aI55625
aI55626
aI55627
aI55628
aI55629
aI55630
aI55631
aI55632
aI55633
aI55634
aI55635
aI55636
aI55637
aI55638
aI55639
aI55640
aI55641
aI55642
aI55643
aI55644
aI55645
aI55646
aI55647
aI55648
aI55649
aI55650
asg4
(lp191
I55599
aI55600
aI55601
aI55602
aI55603
aI55604
aI55605
aI55606
asg6
(lp192
I7
aI78
aI152
aI127
aI2
aI106
aI230003
aI7313
aI2371
aI176
aI246
aI37
asg8
I47
sa(dp193
g2
(lp194
I55653
aI55654
aI55655
aI55656
aI55657
aI55658
aI55659
aI55660
aI55661
aI55662
aI55663
aI55664
aI55665
aI55666
aI55667
aI55668
aI55669
aI55670
aI55671
aI55672
aI55673
aI55674
aI55675
aI55676
aI55677
aI55678
aI55679
aI55680
aI55681
aI55682
aI55683
aI55684
aI55685
aI55686
aI55687
aI55688
aI55689
aI55690
aI55691
aI55692
aI55693
aI55694
aI55695
aI55696
aI55697
aI55698
aI55699
aI55700
aI55701
aI55702
aI55703
aI55704
aI55705
aI55706
aI55707
aI55708
aI55709
asg4
(lp195
I55651
aI55652
asg6
(lp196
I104
aI142
aI4073
aI23
aI7
aI2
aI8349
aI5
aI6
aI230003
aI37
asg8
I48
sa(dp197
g2
(lp198
I55717
aI55718
aI55719
aI55720
aI55721
aI55722
aI55723
aI55724
aI55725
aI55726
aI55727
aI55728
aI55729
aI55730
aI55731
aI55732
aI55733
aI55734
aI55735
aI55736
aI55737
aI55738
aI55739
aI55740
aI55741
aI55742
aI55743
aI55744
aI55745
aI55746
aI55747
aI55748
aI55749
aI55750
aI55751
aI55752
aI55753
aI55754
aI55755
aI55756
aI55757
aI55758
aI55759
aI55760
aI55761
aI55762
aI55763
aI55764
aI55765
aI55766
aI55767
aI55768
aI55769
aI55770
aI55771
aI55772
aI55773
aI55774
aI55775
aI55776
aI55777
aI55778
aI55779
aI55780
aI55781
aI55782
aI55783
aI55784
aI55785
aI55786
aI55787
aI55788
aI55789
aI55790
aI55791
aI55792
aI55793
aI55794
aI55795
aI55796
aI55797
asg4
(lp199
I55710
aI55711
aI55712
aI55713
aI55714
aI55715
aI55716
asg6
(lp200
I104
aI1014
aI154
aI2
aI230003
aI2981
aI37
asg8
I49
sa(dp201
g2
(lp202
I55799
aI55800
aI55801
aI55802
aI55803
aI55804
aI55805
aI55806
aI55807
aI55808
asg4
(lp203
I55798
asg6
(lp204
I104
aI142
aI1586
aI18401
aI2565
aI4863
aI23
aI83
aI3384
aI37
asg8
I50
sa(dp205
g2
(lp206
I55811
aI55812
aI55813
aI55814
aI55815
aI55816
aI55817
aI55818
aI55819
aI55820
aI55821
aI55822
aI55823
aI55824
aI55825
aI55826
aI55827
aI55828
aI55829
aI55830
aI55831
aI55832
aI55833
aI55834
aI55835
aI55836
aI55837
aI55838
aI55839
aI55840
aI55841
aI55842
aI55843
aI55844
aI55845
aI55846
aI55847
aI55848
aI55849
aI55850
aI55851
asg4
(lp207
I55809
aI55810
asg6
(lp208
I161
aI30
aI162661
aI307780
aI1189
aI37
asg8
I51
sa(dp209
g2
(lp210
I55854
aI55855
aI55856
aI55857
asg4
(lp211
I55852
aI55853
asg6
(lp212
I82
aI30
aI162661
aI307780
aI1189
aI37
asg8
I52
sa(dp213
g2
(lp214
I55859
aI55860
aI55861
asg4
(lp215
I55858
asg6
(lp216
I78
aI10
aI162661
aI307780
aI20
aI8093
aI1808
aI37
asg8
I53
sa(dp217
g2
(lp218
I55864
aI55865
aI55866
asg4
(lp219
I55862
aI55863
asg6
(lp220
I7
aI78
aI667
aI10
aI52777
aI593455
aI2
aI776
aI1289
aI37
asg8
I54
sa(dp221
g2
(lp222
I55869
aI55870
aI55871
asg4
(lp223
I55867
aI55868
asg6
(lp224
I74
aI2049
aI2
aI1092
aI5
aI52777
aI593455
aI37
asg8
I55
sa(dp225
g2
(lp226
I55874
aI55875
aI55876
asg4
(lp227
I55872
aI55873
asg6
(lp228
I78
aI152
aI30
aI2
aI603
aI1587
aI1716
aI1277
aI37
asg8
I56
sa(dp229
g2
(lp230
sg4
(lp231
I55877
asg6
(lp232
I78
aI30
aI593455
aI20
aI7770
aI37
asg8
I57
sa(dp233
g2
(lp234
I55879
aI55880
aI55881
aI55882
aI55883
aI55884
aI55885
aI55886
aI55887
aI55888
aI55889
asg4
(lp235
I55878
asg6
(lp236
I82
aI30
aI10965
aI20199
aI588300
aI1189
aI37
asg8
I58
sa(dp237
g2
(lp238
I55893
asg4
(lp239
I55890
aI55891
aI55892
asg6
(lp240
I78
aI24691
aI10
aI20199
aI588300
aI37
asg8
I59
sa(dp241
g2
(lp242
I55896
aI55897
aI55898
aI55899
aI55900
aI55901
aI55902
aI55903
aI55904
aI55905
asg4
(lp243
I55894
aI55895
asg6
(lp244
I78
aI3411
aI47
aI2
aI119140
aI339384
aI330
aI37
asg8
I60
sa(dp245
g2
(lp246
sg4
(lp247
I55906
asg6
(lp248
I82
aI87
aI2
aI119140
aI339384
aI4738
aI37
asg8
I61
sa(dp249
g2
(lp250
I55909
asg4
(lp251
I55907
aI55908
asg6
(lp252
I24
aI2305
aI87
aI2
aI119140
aI339384
aI4738
aI37
asg8
I62
sa(dp253
g2
(lp254
I55911
asg4
(lp255
I55910
asg6
(lp256
I78
aI522
aI5
aI4864
aI10
aI2035
aI1161
aI37
asg8
I63
sa(dp257
g2
(lp258
I55913
asg4
(lp259
I55912
asg6
(lp260
I78
aI30
aI2035
aI1161
aI20
aI734
aI288
aI37
asg8
I64
sa(dp261
g2
(lp262
sg4
(lp263
I55914
asg6
(lp264
I161
aI30
aI606569
aI1189
aI37
asg8
I65
sa(dp265
g2
(lp266
I55921
aI55922
aI55923
aI55924
aI55925
aI55926
aI55927
aI55928
aI55929
aI55930
aI55931
aI55932
aI55933
aI55934
aI55935
aI55936
aI55937
aI55938
aI55939
aI55940
aI55941
aI55942
aI55943
aI55944
aI55945
aI55946
aI55947
aI55948
aI55949
aI55950
aI55951
aI55952
aI55953
aI55954
aI55955
aI55956
aI55957
aI55958
aI55959
aI55960
asg4
(lp267
I55915
aI55916
aI55917
aI55918
aI55919
aI55920
asg6
(lp268
I78
aI3411
aI154
aI27796
aI1598434
aI330
aI37
asg8
I66
sa(dp269
g2
(lp270
I55964
aI55965
asg4
(lp271
I55961
aI55962
aI55963
asg6
(lp272
I74
aI10
aI27796
aI1598434
aI20
aI2224
aI37
asg8
I67
sa(dp273
g2
(lp274
I55967
asg4
(lp275
I55966
asg6
(lp276
I82
aI30
aI27796
aI1598434
aI1189
aI37
asg8
I68
sa(dp277
g2
(lp278
I55970
aI55971
aI55972
aI55973
aI55974
aI55975
aI55976
aI55977
aI55978
aI55979
aI55980
aI55981
aI55982
aI55983
aI55984
aI55985
aI55986
aI55987
aI55988
aI55989
asg4
(lp279
I55968
aI55969
asg6
(lp280
I78
aI522
aI5
aI220
aI10
aI60956
aI3
aI74618
aI37
asg8
I69
sa(dp281
g2
(lp282
sg4
(lp283
I55990
asg6
(lp284
I82
aI30
aI60956
aI3
aI74618
aI1976
aI37
asg8
I70
sa(dp285
g2
(lp286
sg4
(lp287
I55991
asg6
(lp288
I161
aI30
aI60956
aI3
aI74618
aI1976
aI37
asg8
I71
sa(dp289
g2
(lp290
I55994
aI55995
aI55996
aI55997
aI55998
aI55999
aI56000
aI56001
aI56002
asg4
(lp291
I55992
aI55993
asg6
(lp292
I104
aI142
aI60956
aI3
aI74618
aI2151
aI23
aI83
aI37
asg8
I72
sa(dp293
g2
(lp294
I56004
aI56005
aI56006
aI56007
aI56008
aI56009
aI56010
aI56011
aI56012
aI56013
aI56014
aI56015
aI56016
asg4
(lp295
I56003
asg6
(lp296
I297
aI10
aI2
aI1240
aI6811
aI5
aI782414
aI55
aI1985
aI37
asg8
I73
sa(dp297
g2
(lp298
sg4
(lp299
I56017
aI56018
asg6
(lp300
I74
aI946
aI2
aI1240
aI6811
aI5
aI782414
aI55
aI37
asg8
I74
sa(dp301
g2
(lp302
I56021
aI56022
asg4
(lp303
I56019
aI56020
asg6
(lp304
I82
aI30
aI2
aI1240
aI6811
aI5
aI782414
aI55
aI926
aI37
asg8
I75
sa(dp305
g2
(lp306
sg4
(lp307
I56023
asg6
(lp308
I78
aI10
aI5015
aI1176385
aI20
aI324
aI288
aI37
asg8
I76
sa(dp309
g2
(lp310
I56025
aI56026
aI56027
aI56028
asg4
(lp311
I56024
asg6
(lp312
I82
aI127
aI27776
aI233731
aI2086
aI37
asg8
I77
sa(dp313
g2
(lp314
sg4
(lp315
I56029
asg6
(lp316
I78
aI127
aI27776
aI233731
aI2086
aI5
aI37
asg8
I78
sa.