(lp0
(dp1
S'bad'
p2
(lp3
I3
aI4
aI5
aI6
aI7
aI8
aI9
aI10
asS'good'
p4
(lp5
I1
aI2
asS'question'
p6
(lp7
I78
aI47
aI11174
aI5
aI119704
aI5545
aI37
asS'question_id'
p8
I1
sa(dp9
g2
(lp10
I15
aI16
aI17
asg4
(lp11
I11
aI12
aI13
aI14
asg6
(lp12
I78
aI10
aI66713
aI115200
aI1985
aI11
aI37
asg8
I2
sa(dp13
g2
(lp14
sg4
(lp15
I61
asg6
(lp16
I104
aI142
aI7281
aI154
aI128173
aI1804
aI8440
aI37
asg8
I5
sa(dp17
g2
(lp18
sg4
(lp19
I62
aI63
asg6
(lp20
I104
aI142
aI1786
aI154
aI128173
aI31
aI37
asg8
I6
sa(dp21
g2
(lp22
I192
aI193
aI194
aI195
aI196
aI197
aI198
asg4
(lp23
I191
asg6
(lp24
I104
aI142
aI141
aI30
aI8312
aI122277
aI19
aI33280
aI37
asg8
I9
sa(dp25
g2
(lp26
I242
aI243
aI244
aI245
aI246
aI247
aI248
aI249
aI250
aI251
aI252
aI253
aI254
aI255
aI256
asg4
(lp27
I240
aI241
asg6
(lp28
I104
aI142
aI99
aI127
aI8312
aI122277
aI1192
aI29
aI33280
aI37
asg8
I11
sa(dp29
g2
(lp30
I271
aI272
aI273
aI274
aI275
aI276
aI277
aI278
aI279
aI280
aI281
aI282
aI283
aI284
aI285
aI286
aI287
aI288
aI289
aI290
aI291
aI292
aI293
aI294
aI295
aI296
aI297
aI298
aI299
asg4
(lp31
I257
aI258
aI259
aI260
aI261
aI262
aI263
aI264
aI265
aI266
aI267
aI268
aI269
aI270
asg6
(lp32
I7
aI78
aI472
aI127
aI2
aI146060
aI43842
aI1922
aI176
aI246
aI37
asg8
I12
sa(dp33
g2
(lp34
I448
aI449
aI450
aI451
aI452
aI453
aI454
asg4
(lp35
I447
asg6
(lp36
I104
aI142
aI523
aI23
aI83
aI7
aI2
aI3822
aI397
aI2
aI99618
aI37
asg8
I16
sa(dp37
g2
(lp38
I465
aI466
aI467
aI468
aI469
aI470
asg4
(lp39
I462
aI463
aI464
asg6
(lp40
I78
aI522
aI5
aI6
aI13364
aI10
aI6
aI84383
aI37
asg8
I18
sa(dp41
g2
(lp42
I479
aI480
aI481
aI482
aI483
aI484
aI485
asg4
(lp43
I478
asg6
(lp44
I78
aI522
aI5
aI336
aI154
aI2
aI15845
aI330
aI37
asg8
I20
sa(dp45
g2
(lp46
sg4
(lp47
I486
aI487
aI488
aI489
asg6
(lp48
I78
aI1031
aI30
aI914592
aI3696
aI5
aI37
asg8
I21
sa(dp49
g2
(lp50
I496
aI497
aI498
aI499
aI500
aI501
aI502
aI503
aI504
aI505
aI506
aI507
aI508
aI509
aI510
aI511
aI512
aI513
aI514
aI515
aI516
aI517
aI518
aI519
aI520
aI521
aI522
aI523
aI524
aI525
aI526
aI527
aI528
aI529
asg4
(lp51
I490
aI491
aI492
aI493
aI494
aI495
asg6
(lp52
I281
aI78
aI1129
aI127
aI914592
aI1804
aI37
asg8
I22
sa(dp53
g2
(lp54
I534
aI535
aI536
aI537
asg4
(lp55
I530
aI531
aI532
aI533
asg6
(lp56
I78
aI5395
aI127
aI914592
aI1604
aI37
asg8
I23
sa(dp57
g2
(lp58
I541
aI542
aI543
aI544
aI545
aI546
aI547
aI548
aI549
aI550
aI551
aI552
aI553
aI554
aI555
aI556
aI557
aI558
aI559
aI560
aI561
aI562
aI563
aI564
aI565
aI566
aI567
aI568
aI569
aI570
aI571
aI572
aI573
aI574
aI575
aI576
aI577
asg4
(lp59
I538
aI539
aI540
asg6
(lp60
I78
aI152
aI127
aI2
aI48198
aI17069
aI10828
aI176
aI246
aI37
asg8
I24
sa(dp61
g2
(lp62
I633
aI634
aI635
asg4
(lp63
I632
asg6
(lp64
I78
aI4351
aI127
aI2
aI124876
aI10421
aI12901
aI3039
aI7
aI37
asg8
I27
sa(dp65
g2
(lp66
sg4
(lp67
I636
aI637
aI638
asg6
(lp68
I78
aI10
aI124876
aI10421
aI20
aI16633
aI37
asg8
I28
sa(dp69
g2
(lp70
I684
aI685
aI686
aI687
aI688
aI689
aI690
aI691
aI692
aI693
aI694
aI695
aI696
aI697
aI698
aI699
aI700
aI701
aI702
asg4
(lp71
I681
aI682
aI683
asg6
(lp72
I78
aI10
aI2
aI10735
aI572
aI5
aI2
aI98082
aI5370
aI37
asg8
I31
sa(dp73
g2
(lp74
I705
aI706
aI707
aI708
aI709
aI710
aI711
aI712
aI713
aI714
aI715
aI716
aI717
aI718
aI719
aI720
aI721
aI722
aI723
aI724
aI725
aI726
aI727
aI728
aI729
aI730
aI731
aI732
asg4
(lp75
I703
aI704
asg6
(lp76
I78
aI12349
aI127
aI171974
aI6842
aI4
aI37
asg8
I32
sa(dp77
g2
(lp78
I734
aI735
aI736
aI737
aI738
aI739
aI740
aI741
aI742
aI743
aI744
aI745
aI746
aI747
aI748
asg4
(lp79
I733
asg6
(lp80
I78
aI141
aI127
aI171974
aI13877
aI41995
aI3
aI46177
aI17
aI58
aI16419
aI37
asg8
I33
sa(dp81
g2
(lp82
sg4
(lp83
I760
asg6
(lp84
I78
aI10
aI219817
aI20
aI2492
aI37
asg8
I36
sa(dp85
g2
(lp86
I766
aI767
aI768
aI769
aI770
aI771
aI772
aI773
asg4
(lp87
I761
aI762
aI763
aI764
aI765
asg6
(lp88
I104
aI142
aI523
aI5
aI5210
aI20
aI5850
aI3028
aI6540
aI37
asg8
I37
sa(dp89
g2
(lp90
sg4
(lp91
I792
asg6
(lp92
I297
aI127
aI2
aI5210
aI20
aI5850
aI523
aI6460
aI6540
aI37
asg8
I40
sa(dp93
g2
(lp94
I803
aI804
aI805
aI806
aI807
aI808
aI809
aI810
aI811
aI812
aI813
aI814
aI815
aI816
aI817
aI818
aI819
aI820
aI821
aI822
asg4
(lp95
I793
aI794
aI795
aI796
aI797
aI798
aI799
aI800
aI801
aI802
asg6
(lp96
I78
aI10
aI377239
aI246646
aI20
aI678
aI19144
aI37
asg8
I41
sa(dp97
g2
(lp98
I825
aI826
aI827
asg4
(lp99
I823
aI824
asg6
(lp100
I78
aI30
aI377239
aI246646
aI20
aI7770
aI1879
aI4
aI7441
aI2
aI16634
aI37
asg8
I42
sa(dp101
g2
(lp102
I831
aI832
aI833
aI834
aI835
aI836
aI837
aI838
aI839
asg4
(lp103
I828
aI829
aI830
asg6
(lp104
I104
aI228
aI23
aI150908
aI6430
aI1099
aI37
asg8
I43
sa(dp105
g2
(lp106
I884
aI885
aI886
aI887
asg4
(lp107
I883
asg6
(lp108
I78
aI30
aI88409
aI1491877
aI20
aI288
aI25
aI2555
aI37
asg8
I45
sa(dp109
g2
(lp110
sg4
(lp111
I888
aI889
asg6
(lp112
I104
aI142
aI6751
aI154
aI88409
aI1491877
aI31
aI37
asg8
I46
sa(dp113
g2
(lp114
I893
aI894
aI895
aI896
aI897
aI898
aI899
asg4
(lp115
I890
aI891
aI892
asg6
(lp116
I7
aI78
aI152
aI127
aI2
aI295091
aI22452
aI88409
aI1491877
aI4
aI959
aI37
asg8
I47
sa(dp117
g2
(lp118
I907
aI908
aI909
aI910
aI911
aI912
asg4
(lp119
I900
aI901
aI902
aI903
aI904
aI905
aI906
asg6
(lp120
I78
aI10
aI61038
aI2
aI120385
aI20
aI324
aI288
aI37
asg8
I48
sa(dp121
g2
(lp122
sg4
(lp123
I922
asg6
(lp124
I2305
aI127
aI177789
aI8873
aI37
asg8
I50
sa(dp125
g2
(lp126
I961
aI962
aI963
aI964
aI965
asg4
(lp127
I956
aI957
aI958
aI959
aI960
asg6
(lp128
I78
aI10
aI412725
aI20
aI4182
aI37
asg8
I54
sa(dp129
g2
(lp130
I967
aI968
aI969
aI970
aI971
aI972
aI973
aI974
aI975
aI976
aI977
aI978
aI979
aI980
asg4
(lp131
I966
asg6
(lp132
I78
aI10
aI2
aI2623
aI19144
aI5
aI2
aI213805
aI37
asg8
I55
sa(dp133
g2
(lp134
I985
aI986
aI987
aI988
aI989
aI990
aI991
aI992
aI993
aI994
aI995
aI996
aI997
aI998
aI999
aI1000
aI1001
aI1002
aI1003
aI1004
aI1005
aI1006
aI1007
aI1008
aI1009
aI1010
aI1011
aI1012
aI1013
aI1014
aI1015
aI1016
aI1017
aI1018
aI1019
aI1020
aI1021
aI1022
aI1023
aI1024
aI1025
aI1026
aI1027
aI1028
aI1029
aI1030
aI1031
aI1032
aI1033
aI1034
aI1035
aI1036
aI1037
aI1038
aI1039
aI1040
aI1041
aI1042
aI1043
aI1044
aI1045
aI1046
aI1047
aI1048
aI1049
aI1050
aI1051
aI1052
aI1053
aI1054
aI1055
aI1056
aI1057
aI1058
aI1059
aI1060
aI1061
aI1062
aI1063
aI1064
aI1065
aI1066
aI1067
aI1068
aI1069
aI1070
aI1071
aI1072
aI1073
aI1074
aI1075
aI1076
aI1077
aI1078
aI1079
aI1080
asg4
(lp135
I981
aI982
aI983
aI984
asg6
(lp136
I104
aI142
aI213805
aI388
aI7
aI8679
aI37
asg8
I56
sa(dp137
g2
(lp138
I1111
aI1112
aI1113
aI1114
aI1115
aI1116
aI1117
aI1118
aI1119
aI1120
aI1121
aI1122
aI1123
aI1124
aI1125
aI1126
aI1127
aI1128
aI1129
aI1130
aI1131
aI1132
aI1133
aI1134
aI1135
aI1136
asg4
(lp139
I1109
aI1110
asg6
(lp140
I78
aI23
aI15061
aI3598
aI20
aI7503
aI908
aI292
aI37
asg8
I59
sa(dp141
g2
(lp142
I1179
aI1180
asg4
(lp143
I1178
asg6
(lp144
I2305
aI127
aI147971
aI43643
aI54741
aI8873
aI37
asg8
I62
sa(dp145
g2
(lp146
I1186
asg4
(lp147
I1182
aI1183
aI1184
aI1185
asg6
(lp148
I78
aI10
aI147971
aI43643
aI54741
aI55
aI9822
aI37
asg8
I64
sa(dp149
g2
(lp150
I1192
aI1193
aI1194
aI1195
aI1196
aI1197
aI1198
aI1199
aI1200
aI1201
aI1202
aI1203
aI1204
asg4
(lp151
I1187
aI1188
aI1189
aI1190
aI1191
asg6
(lp152
I78
aI5284
aI5
aI2
aI276
aI127
aI147971
aI43643
aI54741
aI1804
aI7
aI37
asg8
I65
sa(dp153
g2
(lp154
I1206
aI1207
aI1208
aI1209
aI1210
asg4
(lp155
I1205
asg6
(lp156
I78
aI5395
aI127
aI147971
aI43643
aI54741
aI1604
aI37
asg8
I66
sa(dp157
g2
(lp158
I1242
aI1243
aI1244
aI1245
aI1246
aI1247
aI1248
aI1249
aI1250
aI1251
aI1252
aI1253
aI1254
aI1255
aI1256
aI1257
aI1258
asg4
(lp159
I1239
aI1240
aI1241
asg6
(lp160
I78
aI522
aI5
aI2336
aI10
aI2
aI9695
aI8580
aI221
aI37
asg8
I69
sa(dp161
g2
(lp162
I1260
asg4
(lp163
I1259
asg6
(lp164
I78
aI1427
aI4
aI2
aI9695
aI8580
aI221
aI37
asg8
I70
sa(dp165
g2
(lp166
I1263
aI1264
aI1265
aI1266
aI1267
aI1268
aI1269
aI1270
aI1271
aI1272
asg4
(lp167
I1261
aI1262
asg6
(lp168
I78
aI10
aI2
aI288
aI5
aI2
aI304
aI1763801
aI4738
aI37
asg8
I71
sa(dp169
g2
(lp170
I1302
aI1303
aI1304
aI1305
aI1306
aI1307
aI1308
aI1309
aI1310
aI1311
aI1312
asg4
(lp171
I1299
aI1300
aI1301
asg6
(lp172
I78
aI364
aI154
aI17175
aI26364
aI1681104
aI3565
aI37
asg8
I74
sa(dp173
g2
(lp174
sg4
(lp175
I1313
asg6
(lp176
I78
aI5284
aI5
aI2
aI276
aI127
aI17175
aI26364
aI1681104
aI1804
aI7
aI37
asg8
I75
sa(dp177
g2
(lp178
sg4
(lp179
I1332
asg6
(lp180
I78
aI10
aI23015
aI37409
aI20
aI1364
aI37
asg8
I78
sa(dp181
g2
(lp182
sg4
(lp183
I1338
asg6
(lp184
I78
aI10
aI632743
aI1004
aI11
aI894
aI3
aI1886
aI20
aI2492
aI37
asg8
I80
sa(dp185
g2
(lp186
sg4
(lp187
I1339
aI1340
asg6
(lp188
I78
aI522
aI5
aI17329
aI10
aI6
aI165591
aI129633
aI37
asg8
I81
sa(dp189
g2
(lp190
I1346
aI1347
aI1348
aI1349
aI1350
asg4
(lp191
I1341
aI1342
aI1343
aI1344
aI1345
asg6
(lp192
I78
aI30
aI32640
aI375999
aI20
aI324
aI288
aI37
asg8
I82
sa(dp193
g2
(lp194
sg4
(lp195
I1353
asg6
(lp196
I78
aI127
aI32640
aI375999
aI1695
aI28
aI6
aI4411
aI37
asg8
I84
sa(dp197
g2
(lp198
I1356
aI1357
aI1358
aI1359
aI1360
asg4
(lp199
I1354
aI1355
asg6
(lp200
I78
aI10
aI2
aI288
aI5
aI2
aI106
aI751
aI10260
aI37
asg8
I85
sa(dp201
g2
(lp202
I1451
aI1452
aI1453
aI1454
aI1455
aI1456
aI1457
aI1458
aI1459
aI1460
aI1461
aI1462
aI1463
aI1464
aI1465
aI1466
asg4
(lp203
I1444
aI1445
aI1446
aI1447
aI1448
aI1449
aI1450
asg6
(lp204
I104
aI142
aI523
aI87
aI7
aI2
aI3934
aI5
aI2
aI30621
aI37
asg8
I88
sa(dp205
g2
(lp206
I1470
aI1471
aI1472
aI1473
aI1474
aI1475
aI1476
aI1477
aI1478
asg4
(lp207
I1467
aI1468
aI1469
asg6
(lp208
I104
aI228
aI127
aI2
aI30621
aI2371
aI189
aI182
aI21
aI16078
aI37
asg8
I89
sa(dp209
g2
(lp210
I72
aI73
aI74
aI75
aI76
aI77
aI78
aI79
aI80
aI81
aI82
aI83
aI84
aI85
aI86
aI87
aI88
aI89
aI90
aI91
aI92
aI93
aI94
aI95
aI96
aI97
aI98
aI99
aI100
aI101
aI102
aI103
aI104
aI105
aI106
aI107
aI108
aI109
aI110
aI111
aI112
aI113
aI114
aI115
aI116
aI117
aI118
aI119
aI120
aI121
aI122
aI123
aI124
aI125
aI126
aI127
aI128
aI129
aI130
aI131
aI132
aI133
aI134
aI135
aI136
aI137
aI138
aI139
aI140
aI141
aI142
aI143
aI144
aI145
aI146
aI147
aI148
aI149
aI150
aI151
aI152
aI153
aI154
asg4
(lp211
I64
aI65
aI66
aI67
aI68
aI69
aI70
aI71
asg6
(lp212
I1134929
aI10
aI2
aI1663
aI32
aI3286
aI3191
aI5
aI128173
aI37
asg8
I7
sa(dp213
g2
(lp214
sg4
(lp215
I412
asg6
(lp216
I1134929
aI30
aI146060
aI43842
aI20
aI106
aI2057
aI37
asg8
I14
sa(dp217
g2
(lp218
I581
aI582
aI583
aI584
aI585
aI586
aI587
aI588
aI589
aI590
aI591
aI592
aI593
aI594
aI595
aI596
aI597
aI598
aI599
aI600
aI601
aI602
aI603
aI604
aI605
aI606
aI607
aI608
aI609
aI610
aI611
aI612
aI613
aI614
aI615
aI616
aI617
aI618
aI619
aI620
aI621
aI622
aI623
aI624
aI625
aI626
asg4
(lp219
I578
aI579
aI580
asg6
(lp220
I1134929
aI30
aI1663
aI5
aI2
aI7531
aI1490
aI7
aI17690
aI37
asg8
I25
sa(dp221
g2
(lp222
I645
aI646
aI647
aI648
aI649
aI650
aI651
aI652
aI653
aI654
aI655
aI656
aI657
aI658
asg4
(lp223
I639
aI640
aI641
aI642
aI643
aI644
asg6
(lp224
I1134929
aI1976
aI2
aI98082
aI5370
aI4234
aI37
asg8
I29
sa(dp225
g2
(lp226
I1138
aI1139
aI1140
aI1141
aI1142
aI1143
aI1144
aI1145
aI1146
aI1147
aI1148
aI1149
aI1150
aI1151
aI1152
aI1153
aI1154
aI1155
aI1156
asg4
(lp227
I1137
asg6
(lp228
I1134929
aI10
aI2
aI65924
aI5
aI2
aI5917
aI304
aI247284
aI264472
aI37
asg8
I60
sa(dp229
g2
(lp230
I1278
aI1279
aI1280
aI1281
aI1282
aI1283
aI1284
aI1285
aI1286
aI1287
aI1288
aI1289
aI1290
aI1291
aI1292
aI1293
aI1294
aI1295
aI1296
aI1297
asg4
(lp231
I1273
aI1274
aI1275
aI1276
aI1277
asg6
(lp232
I1134929
aI4738
aI409
aI7102
aI37
asg8
I72
sa(dp233
g2
(lp234
sg4
(lp235
I1298
asg6
(lp236
I1134929
aI10
aI409
aI7102
aI20
aI584
aI525
aI37
asg8
I73
sa(dp237
g2
(lp238
I1315
aI1316
aI1317
aI1318
aI1319
aI1320
aI1321
aI1322
aI1323
aI1324
aI1325
aI1326
asg4
(lp239
I1314
asg6
(lp240
I1134929
aI4738
aI2
aI23015
aI37409
aI37
asg8
I76
sa(dp241
g2
(lp242
sg4
(lp243
I18
aI19
asg6
(lp244
I635160
aI30
aI66713
aI115200
aI1189
aI37
asg8
I3
sa(dp245
g2
(lp246
I24
aI25
aI26
aI27
aI28
aI29
aI30
aI31
aI32
aI33
aI34
aI35
aI36
aI37
aI38
aI39
aI40
aI41
aI42
aI43
aI44
aI45
aI46
aI47
aI48
aI49
aI50
aI51
aI52
aI53
aI54
aI55
aI56
aI57
aI58
aI59
aI60
asg4
(lp247
I20
aI21
aI22
aI23
asg6
(lp248
I635160
aI127
aI128173
aI1485
aI2356
aI37
asg8
I4
sa(dp249
g2
(lp250
I160
aI161
aI162
aI163
aI164
aI165
aI166
aI167
aI168
aI169
aI170
aI171
aI172
aI173
aI174
aI175
aI176
aI177
aI178
aI179
aI180
aI181
aI182
aI183
aI184
aI185
aI186
aI187
aI188
aI189
aI190
asg4
(lp251
I155
aI156
aI157
aI158
aI159
asg6
(lp252
I635160
aI127
aI8312
aI122277
aI478
aI7138
aI5
aI861
aI2796
aI37
asg8
I8
sa(dp253
g2
(lp254
I204
aI205
aI206
aI207
aI208
aI209
aI210
aI211
aI212
aI213
aI214
aI215
aI216
aI217
aI218
aI219
aI220
aI221
aI222
aI223
aI224
aI225
aI226
aI227
aI228
aI229
aI230
aI231
aI232
aI233
aI234
aI235
aI236
aI237
aI238
aI239
asg4
(lp255
I199
aI200
aI201
aI202
aI203
asg6
(lp256
I635160
aI127
aI8312
aI122277
aI12200
aI29
aI33280
aI37
asg8
I10
sa(dp257
g2
(lp258
I311
aI312
aI313
aI314
aI315
aI316
aI317
aI318
aI319
aI320
aI321
aI322
aI323
aI324
aI325
aI326
aI327
aI328
aI329
aI330
aI331
aI332
aI333
aI334
aI335
aI336
aI337
aI338
aI339
aI340
aI341
aI342
aI343
aI344
aI345
aI346
aI347
aI348
aI349
aI350
aI351
aI352
aI353
aI354
aI355
aI356
aI357
aI358
aI359
aI360
aI361
aI362
aI363
aI364
aI365
aI366
aI367
aI368
aI369
aI370
aI371
aI372
aI373
aI374
aI375
aI376
aI377
aI378
aI379
aI380
aI381
aI382
aI383
aI384
aI385
aI386
aI387
aI388
aI389
aI390
aI391
aI392
aI393
aI394
aI395
aI396
aI397
aI398
aI399
aI400
aI401
aI402
aI403
aI404
aI405
aI406
aI407
aI408
aI409
aI410
aI411
asg4
(lp259
I300
aI301
aI302
aI303
aI304
aI305
aI306
aI307
aI308
aI309
aI310
asg6
(lp260
I635160
aI127
aI2
aI146060
aI43842
aI248
aI101
aI389
aI37
asg8
I13
sa(dp261
g2
(lp262
I417
aI418
aI419
aI420
aI421
aI422
aI423
aI424
aI425
aI426
aI427
aI428
aI429
aI430
aI431
aI432
aI433
aI434
aI435
aI436
aI437
aI438
aI439
aI440
aI441
aI442
aI443
aI444
aI445
aI446
asg4
(lp263
I413
aI414
aI415
aI416
asg6
(lp264
I635160
aI30
aI2
aI146060
aI43842
aI2471
aI29
aI389
aI37
asg8
I15
sa(dp265
g2
(lp266
I474
aI475
aI476
aI477
asg4
(lp267
I471
aI472
aI473
asg6
(lp268
I635160
aI87
aI100909
aI2890
aI37
asg8
I19
sa(dp269
g2
(lp270
I628
aI629
aI630
aI631
asg4
(lp271
I627
asg6
(lp272
I635160
aI30
aI2
aI124876
aI10421
aI13403
aI37
asg8
I26
sa(dp273
g2
(lp274
I667
aI668
aI669
aI670
aI671
aI672
aI673
aI674
aI675
aI676
aI677
aI678
aI679
aI680
asg4
(lp275
I659
aI660
aI661
aI662
aI663
aI664
aI665
aI666
asg6
(lp276
I635160
aI87
aI2
aI98082
aI5370
aI4234
aI106
aI568
aI37
asg8
I30
sa(dp277
g2
(lp278
I753
aI754
aI755
aI756
aI757
aI758
aI759
asg4
(lp279
I750
aI751
aI752
asg6
(lp280
I635160
aI30
aI2
aI219817
aI1976
aI37
asg8
I35
sa(dp281
g2
(lp282
I779
aI780
aI781
aI782
aI783
aI784
aI785
aI786
aI787
asg4
(lp283
I774
aI775
aI776
aI777
aI778
asg6
(lp284
I635160
aI127
aI2
aI3003
aI6540
aI5
aI5210
aI20
aI5850
aI3599
aI37
asg8
I38
sa(dp285
g2
(lp286
I843
aI844
aI845
aI846
aI847
aI848
aI849
aI850
aI851
aI852
aI853
aI854
aI855
aI856
aI857
aI858
aI859
aI860
aI861
aI862
aI863
aI864
aI865
aI866
aI867
aI868
aI869
aI870
aI871
aI872
aI873
aI874
aI875
aI876
aI877
aI878
aI879
aI880
aI881
aI882
asg4
(lp287
I840
aI841
aI842
asg6
(lp288
I635160
aI30
aI88409
aI1491877
aI1189
aI37
asg8
I44
sa(dp289
g2
(lp290
I927
asg4
(lp291
I923
aI924
aI925
aI926
asg6
(lp292
I635160
aI30
aI61038
aI2
aI120385
aI6034
aI37
asg8
I51
sa(dp293
g2
(lp294
I935
aI936
aI937
aI938
aI939
aI940
aI941
aI942
aI943
aI944
aI945
aI946
aI947
aI948
aI949
aI950
aI951
aI952
aI953
aI954
aI955
asg4
(lp295
I931
aI932
aI933
aI934
asg6
(lp296
I635160
aI30
aI412725
aI3603
aI37
asg8
I53
sa(dp297
g2
(lp298
I1084
aI1085
aI1086
aI1087
aI1088
aI1089
aI1090
aI1091
aI1092
aI1093
aI1094
aI1095
aI1096
aI1097
aI1098
aI1099
aI1100
aI1101
aI1102
aI1103
aI1104
aI1105
asg4
(lp299
I1081
aI1082
aI1083
asg6
(lp300
I635160
aI30
aI2
aI106
aI15061
aI3598
aI1973
aI2184
aI37
asg8
I57
sa(dp301
g2
(lp302
I1219
aI1220
aI1221
aI1222
aI1223
aI1224
aI1225
aI1226
aI1227
aI1228
aI1229
aI1230
aI1231
aI1232
aI1233
aI1234
aI1235
aI1236
aI1237
aI1238
asg4
(lp303
I1212
aI1213
aI1214
aI1215
aI1216
aI1217
aI1218
asg6
(lp304
I635160
aI30
aI2
aI112
aI15014
aI2442
aI171
aI37
asg8
I68
sa(dp305
g2
(lp306
sg4
(lp307
I1327
aI1328
aI1329
aI1330
aI1331
asg6
(lp308
I635160
aI30
aI2
aI23015
aI37409
aI2975
aI37
asg8
I77
sa(dp309
g2
(lp310
I1366
aI1367
aI1368
aI1369
asg4
(lp311
I1361
aI1362
aI1363
aI1364
aI1365
asg6
(lp312
I635160
aI30
aI2
aI106
aI2371
aI5
aI2
aI36063
aI10260
aI37
asg8
I86
sa(dp313
g2
(lp314
I1376
aI1377
aI1378
aI1379
aI1380
aI1381
aI1382
aI1383
aI1384
aI1385
aI1386
aI1387
aI1388
aI1389
aI1390
aI1391
aI1392
aI1393
aI1394
aI1395
aI1396
aI1397
aI1398
aI1399
aI1400
aI1401
aI1402
aI1403
aI1404
aI1405
aI1406
aI1407
aI1408
aI1409
aI1410
aI1411
aI1412
aI1413
aI1414
aI1415
aI1416
aI1417
aI1418
aI1419
aI1420
aI1421
aI1422
aI1423
aI1424
aI1425
aI1426
aI1427
aI1428
aI1429
aI1430
aI1431
aI1432
aI1433
aI1434
aI1435
aI1436
aI1437
aI1438
aI1439
aI1440
aI1441
aI1442
aI1443
asg4
(lp315
I1370
aI1371
aI1372
aI1373
aI1374
aI1375
asg6
(lp316
I635160
aI30
aI2
aI30621
aI751
aI10260
aI5560
aI37
asg8
I87
sa(dp317
g2
(lp318
I456
aI457
aI458
aI459
aI460
aI461
asg4
(lp319
I455
asg6
(lp320
I1243079
aI10
aI2
aI397
aI99618
aI29
aI37
asg8
I17
sa(dp321
g2
(lp322
sg4
(lp323
I749
asg6
(lp324
I1243079
aI10
aI171974
aI6764
aI37
asg8
I34
sa(dp325
g2
(lp326
I790
aI791
asg4
(lp327
I788
aI789
asg6
(lp328
I1243079
aI127
aI2
aI3003
aI6540
aI5
aI5210
aI20
aI5850
aI3599
aI37
asg8
I39
sa(dp329
g2
(lp330
I918
aI919
aI920
aI921
asg4
(lp331
I913
aI914
aI915
aI916
aI917
asg6
(lp332
I1243079
aI30
aI61038
aI2
aI120385
aI1189
aI37
asg8
I49
sa(dp333
g2
(lp334
sg4
(lp335
I928
aI929
aI930
asg6
(lp336
I1243079
aI30
aI61038
aI171974
aI177789
aI171974
aI6034
aI37
asg8
I52
sa(dp337
g2
(lp338
I1108
asg4
(lp339
I1106
aI1107
asg6
(lp340
I1243079
aI30
aI2
aI106
aI15061
aI3598
aI1973
aI2184
aI37
asg8
I58
sa(dp341
g2
(lp342
I1158
aI1159
aI1160
aI1161
aI1162
aI1163
aI1164
aI1165
aI1166
aI1167
aI1168
aI1169
aI1170
aI1171
aI1172
aI1173
aI1174
aI1175
aI1176
aI1177
asg4
(lp343
I1157
asg6
(lp344
I1243079
aI23
aI2
aI304
aI247284
aI264472
aI20
aI8661
aI37
asg8
I61
sa(dp345
g2
(lp346
sg4
(lp347
I1181
asg6
(lp348
I1243079
aI154
aI147971
aI43643
aI54741
aI388
aI37
asg8
I63
sa(dp349
g2
(lp350
sg4
(lp351
I1211
asg6
(lp352
I1243079
aI30
aI68509
aI215750
aI1189
aI37
asg8
I67
sa(dp353
g2
(lp354
I1336
aI1337
asg4
(lp355
I1333
aI1334
aI1335
asg6
(lp356
I1243079
aI10
aI2
aI632743
aI1004
aI11
aI894
aI3
aI1886
aI878
aI37
asg8
I79
sa(dp357
g2
(lp358
I1352
asg4
(lp359
I1351
asg6
(lp360
I1243079
aI30
aI32640
aI375999
aI1189
aI37
asg8
I83
sa.