(lp0
(dp1
S'bad'
p2
(lp3
I94
aI54
aI85
aI62
aI32
aI84
aI43
aI38
aI9
aI34
aI80
aI31
aI26
aI6
aI55
aI65
aI79
aI45
aI52
aI15
asS'good'
p4
I1
sS'question'
p5
(lp6
I1781
aI1481
aI379
aI906
aI970
aI379
aI1932
aI152
aI596
aI379
aI236
aI940
aI1504
aI1184
aI1169
aI970
aI2044
aI1131
aI491
aI1971
asS'question_id'
p7
I2
sa(dp8
g2
(lp9
I27
aI38
aI53
aI8
aI55
aI80
aI52
aI18
aI65
aI24
aI47
aI43
aI4
aI31
aI19
aI92
aI15
aI71
aI44
aI48
asg4
I2
sg5
(lp10
I1099
aI1481
aI379
aI1974
aI1878
aI970
aI379
aI1621
aI1532
aI22
aI354
aI1930
aI1971
asg7
I3
sa(dp11
g2
(lp12
I87
aI16
aI36
aI68
aI74
aI85
aI50
aI44
aI90
aI69
aI80
aI93
aI9
aI71
aI61
aI14
aI40
aI62
aI75
aI37
asg4
I3
sg5
(lp13
I1099
aI278
aI379
aI1043
aI1145
aI1506
aI1971
asg7
I4
sa(dp14
g2
(lp15
I49
aI61
aI93
aI20
aI90
aI35
aI44
aI13
aI73
aI7
aI60
aI45
aI94
aI23
aI83
aI50
aI30
aI16
aI57
aI80
asg4
I4
sg5
(lp16
I121
aI332
aI278
aI210
aI1433
aI969
aI1123
aI354
aI1930
aI1971
asg7
I5
sa(dp17
g2
(lp18
I79
aI33
aI92
aI77
aI21
aI53
aI20
aI68
aI65
aI26
aI27
aI71
aI64
aI94
aI7
aI84
aI56
aI75
aI85
aI15
asg4
I5
sg5
(lp19
I1099
aI1481
aI379
aI684
aI970
aI379
aI1611
aI915
aI970
aI1517
aI1836
aI1971
asg7
I6
sa(dp20
g2
(lp21
I65
aI16
aI40
aI79
aI66
aI75
aI42
aI70
aI11
aI78
aI56
aI84
aI68
aI35
aI62
aI43
aI13
aI48
aI71
aI51
asg4
I6
sg5
(lp22
I1785
aI278
aI1730
aI1738
aI1243
aI379
aI582
aI426
aI1184
aI95
aI1669
aI1971
asg7
I7
sa(dp23
g2
(lp24
I62
aI51
aI48
aI42
aI55
aI54
aI69
aI40
aI88
aI65
aI49
aI77
aI45
aI85
aI13
aI7
aI47
aI66
aI37
aI11
asg4
I7
sg5
(lp25
I1099
aI312
aI278
aI1859
aI665
aI542
aI1971
asg7
I8
sa(dp26
g2
(lp27
I76
aI84
aI66
aI28
aI80
aI58
aI34
aI71
aI79
aI12
aI24
aI59
aI21
aI73
aI5
aI70
aI57
aI60
aI94
aI74
asg4
I8
sg5
(lp28
I1099
aI1481
aI379
aI684
aI970
aI379
aI1979
aI1085
aI1791
aI1003
aI225
aI641
aI1018
aI1504
aI404
aI1109
aI1514
aI503
aI487
aI152
aI65
aI152
aI760
aI1569
aI126
aI1514
aI753
aI152
aI397
aI152
aI1522
aI487
aI1971
asg7
I9
sa(dp29
g2
(lp30
I33
aI40
aI68
aI5
aI54
aI85
aI44
aI22
aI20
aI3
aI80
aI55
aI53
aI70
aI52
aI43
aI88
aI9
aI64
aI62
asg4
I9
sg5
(lp31
I121
aI1075
aI1481
aI156
aI1618
aI750
aI1971
asg7
I11
sa(dp32
g2
(lp33
I44
aI4
aI58
aI34
aI71
aI20
aI8
aI6
aI77
aI54
aI13
aI76
aI61
aI14
aI68
aI16
aI43
aI51
aI7
aI47
asg4
I10
sg5
(lp34
I1781
aI1481
aI127
aI1961
aI505
aI1047
aI1971
asg7
I12
sa(dp35
g2
(lp36
I12
aI5
aI79
aI92
aI9
aI65
aI77
aI76
aI19
aI42
aI55
aI44
aI85
aI16
aI69
aI70
aI59
aI72
aI36
aI8
asg4
I11
sg5
(lp37
I121
aI332
aI278
aI1798
aI1892
aI1433
aI969
aI352
aI354
aI1930
aI1971
asg7
I13
sa(dp38
g2
(lp39
I47
aI6
aI7
aI34
aI28
aI21
aI74
aI56
aI53
aI93
aI18
aI51
aI94
aI86
aI78
aI23
aI42
aI57
aI26
aI39
asg4
I12
sg5
(lp40
I121
aI332
aI1728
aI1033
aI765
aI1184
aI966
aI2013
aI426
aI354
aI1930
aI1971
asg7
I14
sa(dp41
g2
(lp42
I93
aI74
aI51
aI5
aI11
aI54
aI22
aI44
aI42
aI19
aI76
aI59
aI9
aI13
aI60
aI64
aI40
aI57
aI3
aI68
asg4
I13
sg5
(lp43
I1099
aI316
aI1481
aI379
aI2001
aI1673
aI970
aI1675
aI1971
asg7
I15
sa(dp44
g2
(lp45
I94
aI34
aI90
aI60
aI35
aI66
aI13
aI47
aI62
aI27
aI73
aI36
aI42
aI86
aI68
aI6
aI39
aI31
aI26
aI64
asg4
I14
sg5
(lp46
I497
aI1481
aI146
aI505
aI888
aI1666
aI859
aI1261
aI1971
asg7
I16
sa(dp47
g2
(lp48
I38
aI37
aI86
aI62
aI49
aI48
aI20
aI36
aI33
aI85
aI73
aI84
aI80
aI13
aI87
aI35
aI69
aI64
aI93
aI45
asg4
I15
sg5
(lp49
I1099
aI1140
aI1834
aI1421
aI1609
aI379
aI1621
aI22
aI354
aI190
aI354
aI1930
aI1971
asg7
I17
sa(dp50
g2
(lp51
I22
aI69
aI85
aI17
aI8
aI19
aI13
aI47
aI66
aI36
aI51
aI24
aI31
aI53
aI2
aI38
aI48
aI65
aI76
aI61
asg4
I16
sg5
(lp52
I121
aI731
aI278
aI379
aI984
aI301
aI220
aI575
aI1363
aI1971
asg7
I18
sa(dp53
g2
(lp54
I58
aI20
aI14
aI62
aI23
aI31
aI16
aI60
aI39
aI5
aI34
aI28
aI57
aI68
aI3
aI71
aI92
aI8
aI24
aI50
asg4
I17
sg5
(lp55
I1781
aI1481
aI379
aI725
aI1833
aI127
aI1971
asg7
I19
sa(dp56
g2
(lp57
I17
aI19
aI40
aI39
aI66
aI31
aI52
aI79
aI72
aI87
aI90
aI47
aI75
aI42
aI73
aI23
aI65
aI57
aI22
aI24
asg4
I18
sg5
(lp58
I1781
aI1481
aI379
aI1970
aI970
aI379
aI2039
aI1408
aI52
aI1456
aI1489
aI379
aI582
aI354
aI1727
aI152
aI1802
aI354
aI1930
aI1971
asg7
I20
sa(dp59
g2
(lp60
I83
aI26
aI27
aI32
aI87
aI78
aI56
aI62
aI50
aI3
aI33
aI20
aI45
aI24
aI71
aI48
aI13
aI79
aI52
aI4
asg4
I19
sg5
(lp61
I1781
aI1481
aI379
aI725
aI1247
aI354
aI702
aI1971
asg7
I21
sa(dp62
g2
(lp63
I47
aI56
aI14
aI33
aI87
aI27
aI65
aI64
aI37
aI23
aI44
aI92
aI45
aI86
aI18
aI13
aI75
aI77
aI93
aI54
asg4
I20
sg5
(lp64
I497
aI278
aI379
aI790
aI865
aI116
aI1971
asg7
I22
sa(dp65
g2
(lp66
I72
aI49
aI55
aI73
aI4
aI24
aI33
aI3
aI44
aI27
aI86
aI74
aI16
aI26
aI18
aI85
aI93
aI90
aI64
aI37
asg4
I21
sg5
(lp67
I497
aI278
aI1874
aI760
aI1354
aI992
aI365
aI1319
aI1971
asg7
I23
sa(dp68
g2
(lp69
I74
aI42
aI43
aI69
aI30
aI56
aI94
aI79
aI90
aI70
aI71
aI52
aI11
aI62
aI23
aI6
aI72
aI2
aI85
aI12
asg4
I22
sg5
(lp70
I497
aI278
aI449
aI589
aI50
aI1971
asg7
I24
sa(dp71
g2
(lp72
I48
aI56
aI52
aI83
aI40
aI65
aI90
aI20
aI87
aI68
aI80
aI13
aI11
aI22
aI55
aI24
aI39
aI31
aI33
aI7
asg4
I23
sg5
(lp73
I1781
aI1481
aI379
aI1965
aI924
aI354
aI379
aI1349
aI596
aI165
aI354
aI357
aI491
aI1971
asg7
I26
sa(dp74
g2
(lp75
I77
aI76
aI94
aI62
aI23
aI87
aI28
aI51
aI22
aI11
aI88
aI80
aI57
aI55
aI37
aI14
aI20
aI54
aI93
aI35
asg4
I24
sg5
(lp76
I829
aI278
aI379
aI648
aI1365
aI1386
aI970
aI13
aI1655
aI1348
aI777
aI723
aI1971
asg7
I27
sa(dp77
g2
(lp78
I51
aI5
aI68
aI75
aI6
aI8
aI44
aI55
aI76
aI53
aI35
aI36
aI37
aI17
aI3
aI30
aI65
aI87
aI4
aI62
asg4
I25
sg5
(lp79
I1781
aI632
aI1481
aI298
aI1941
aI426
aI160
aI379
aI863
aI1515
aI354
aI565
aI1971
asg7
I28
sa(dp80
g2
(lp81
I14
aI45
aI50
aI36
aI83
aI52
aI22
aI39
aI76
aI16
aI13
aI64
aI74
aI5
aI12
aI55
aI3
aI85
aI92
aI8
asg4
I26
sg5
(lp82
I1099
aI1481
aI379
aI1242
aI2042
aI69
aI1618
aI269
aI1971
asg7
I30
sa(dp83
g2
(lp84
I87
aI38
aI76
aI80
aI66
aI48
aI43
aI51
aI83
aI15
aI73
aI50
aI88
aI17
aI27
aI2
aI42
aI53
aI28
aI9
asg4
I27
sg5
(lp85
I829
aI1481
aI1538
aI626
aI1414
aI638
aI1971
asg7
I31
sa(dp86
g2
(lp87
I24
aI36
aI26
aI19
aI73
aI51
aI2
aI9
aI58
aI71
aI60
aI18
aI78
aI35
aI20
aI59
aI55
aI86
aI47
aI83
asg4
I28
sg5
(lp88
I1781
aI1598
aI379
aI1879
aI827
aI89
aI354
aI1930
aI1971
asg7
I32
sa(dp89
g2
(lp90
I8
aI43
aI49
aI52
aI3
aI2
aI39
aI85
aI32
aI7
aI78
aI21
aI83
aI51
aI75
aI93
aI22
aI28
aI60
aI34
asg4
I29
sg5
(lp91
I1099
aI1481
aI379
aI1896
aI737
aI354
aI252
aI1971
asg7
I33
sa(dp92
g2
(lp93
I24
aI2
aI57
aI27
aI74
aI52
aI90
aI64
aI9
aI75
aI56
aI86
aI45
aI18
aI60
aI21
aI19
aI73
aI78
aI83
asg4
I30
sg5
(lp94
I1099
aI1481
aI379
aI684
aI970
aI379
aI2011
aI1287
aI354
aI1130
aI1971
asg7
I34
sa(dp95
g2
(lp96
I65
aI55
aI88
aI93
aI37
aI72
aI36
aI52
aI19
aI62
aI11
aI20
aI4
aI42
aI50
aI87
aI80
aI24
aI90
aI39
asg4
I31
sg5
(lp97
I1099
aI1481
aI379
aI684
aI970
aI379
aI1834
aI879
aI889
aI94
aI453
aI144
aI2005
aI1354
aI1971
asg7
I35
sa(dp98
g2
(lp99
I49
aI40
aI39
aI69
aI76
aI93
aI23
aI24
aI11
aI85
aI75
aI15
aI65
aI16
aI7
aI71
aI94
aI28
aI83
aI4
asg4
I32
sg5
(lp100
I829
aI1481
aI736
aI1987
aI638
aI1971
asg7
I36
sa(dp101
g2
(lp102
I43
aI56
aI62
aI71
aI69
aI54
aI65
aI7
aI18
aI47
aI87
aI27
aI12
aI30
aI38
aI39
aI93
aI40
aI14
aI80
asg4
I33
sg5
(lp103
I1781
aI1481
aI1686
aI1066
aI1481
aI379
aI725
aI816
aI1294
aI970
aI379
aI63
aI1822
aI1670
aI970
aI1804
aI1971
asg7
I37
sa(dp104
g2
(lp105
I24
aI43
aI2
aI87
aI62
aI76
aI66
aI51
aI40
aI5
aI84
aI19
aI34
aI6
aI52
aI60
aI65
aI92
aI72
aI44
asg4
I34
sg5
(lp106
I1781
aI1609
aI379
aI1621
aI1532
aI22
aI354
aI1930
aI1971
asg7
I38
sa(dp107
g2
(lp108
I74
aI62
aI65
aI61
aI66
aI38
aI21
aI30
aI70
aI59
aI43
aI56
aI50
aI80
aI36
aI73
aI51
aI83
aI64
aI28
asg4
I35
sg5
(lp109
I1099
aI1481
aI379
aI959
aI1182
aI1226
aI2021
aI426
aI379
aI1844
aI970
aI216
aI1971
asg7
I39
sa(dp110
g2
(lp111
I86
aI74
aI78
aI57
aI31
aI16
aI5
aI26
aI17
aI79
aI3
aI54
aI64
aI24
aI35
aI42
aI18
aI28
aI84
aI51
asg4
I36
sg5
(lp112
I1099
aI1481
aI379
aI229
aI1095
aI426
aI83
aI1959
aI354
aI1930
aI1971
asg7
I40
sa(dp113
g2
(lp114
I77
aI36
aI40
aI57
aI30
aI35
aI8
aI9
aI5
aI53
aI59
aI33
aI39
aI23
aI80
aI88
aI22
aI43
aI45
aI90
asg4
I37
sg5
(lp115
I1099
aI1677
aI628
aI1081
aI748
aI1571
aI701
aI1808
aI814
aI310
aI730
aI1457
aI1971
asg7
I42
sa(dp116
g2
(lp117
I88
aI86
aI34
aI11
aI22
aI39
aI18
aI8
aI69
aI19
aI71
aI80
aI3
aI53
aI49
aI61
aI54
aI93
aI7
aI74
asg4
I38
sg5
(lp118
I1781
aI1481
aI379
aI148
aI970
aI1759
aI1971
asg7
I43
sa(dp119
g2
(lp120
I5
aI12
aI35
aI93
aI72
aI45
aI7
aI50
aI47
aI78
aI60
aI34
aI39
aI28
aI21
aI22
aI13
aI26
aI48
aI92
asg4
I39
sg5
(lp121
I1099
aI1145
aI1481
aI379
aI1896
aI29
aI493
aI1914
aI1971
asg7
I44
sa(dp122
g2
(lp123
I42
aI38
aI74
aI52
aI36
aI34
aI75
aI35
aI21
aI15
aI39
aI2
aI73
aI8
aI59
aI69
aI48
aI58
aI78
aI19
asg4
I40
sg5
(lp124
I829
aI1481
aI379
aI124
aI2005
aI1776
aI1838
aI363
aI1972
aI1971
asg7
I45
sa(dp125
g2
(lp126
I11
aI3
aI5
aI31
aI4
aI30
aI14
aI36
aI72
aI12
aI13
aI77
aI88
aI53
aI16
aI24
aI17
aI66
aI7
aI48
asg4
I41
sg5
(lp127
I1781
aI1392
aI255
aI1739
aI1618
aI1826
aI1921
aI354
aI761
aI2033
aI615
aI1971
asg7
I47
sa(dp128
g2
(lp129
I88
aI21
aI83
aI34
aI15
aI58
aI53
aI57
aI87
aI16
aI19
aI73
aI44
aI75
aI35
aI59
aI6
aI28
aI11
aI14
asg4
I42
sg5
(lp130
I1781
aI1481
aI379
aI127
aI970
aI1007
aI1700
aI1971
asg7
I48
sa(dp131
g2
(lp132
I35
aI86
aI88
aI61
aI36
aI44
aI4
aI62
aI73
aI12
aI40
aI72
aI33
aI74
aI21
aI79
aI80
aI56
aI34
aI16
asg4
I43
sg5
(lp133
I1781
aI520
aI379
aI978
aI937
aI353
aI1971
asg7
I49
sa(dp134
g2
(lp135
I80
aI33
aI11
aI16
aI70
aI27
aI18
aI92
aI40
aI66
aI88
aI62
aI12
aI35
aI8
aI31
aI57
aI26
aI2
aI49
asg4
I44
sg5
(lp136
I1781
aI1481
aI379
aI725
aI1186
aI1066
aI470
aI585
aI1184
aI2048
aI1971
asg7
I50
sa(dp137
g2
(lp138
I54
aI18
aI38
aI4
aI12
aI47
aI21
aI49
aI40
aI71
aI33
aI50
aI15
aI5
aI60
aI76
aI26
aI72
aI87
aI17
asg4
I45
sg5
(lp139
I497
aI278
aI449
aI541
aI1971
asg7
I51
sa(dp140
g2
(lp141
I62
aI12
aI69
aI43
aI86
aI75
aI38
aI71
aI11
aI76
aI14
aI20
aI37
aI33
aI9
aI92
aI56
aI27
aI39
aI13
asg4
I46
sg5
(lp142
I829
aI1481
aI1315
aI505
aI380
aI133
aI1972
aI1971
asg7
I52
sa(dp143
g2
(lp144
I90
aI85
aI75
aI12
aI8
aI49
aI83
aI31
aI42
aI2
aI79
aI51
aI80
aI45
aI28
aI13
aI69
aI20
aI55
aI37
asg4
I47
sg5
(lp145
I121
aI853
aI209
aI1481
aI989
aI354
aI1184
aI1449
aI636
aI1971
asg7
I53
sa(dp146
g2
(lp147
I15
aI79
aI65
aI53
aI7
aI4
aI17
aI64
aI2
aI40
aI52
aI11
aI24
aI66
aI49
aI50
aI22
aI94
aI48
aI42
asg4
I48
sg5
(lp148
I1099
aI1481
aI379
aI1973
aI426
aI379
aI801
aI1746
aI426
aI342
aI356
aI1847
aI1971
asg7
I54
sa(dp149
g2
(lp150
I66
aI42
aI57
aI2
aI22
aI72
aI23
aI6
aI26
aI51
aI78
aI39
aI77
aI59
aI21
aI74
aI11
aI87
aI93
aI38
asg4
I49
sg5
(lp151
I684
aI1184
aI1025
aI748
aI1764
aI1609
aI379
aI64
aI638
aI354
aI379
aI91
aI1025
aI1743
aI1971
asg7
I55
sa(dp152
g2
(lp153
I59
aI3
aI22
aI38
aI48
aI79
aI2
aI68
aI15
aI50
aI14
aI87
aI83
aI70
aI93
aI80
aI90
aI11
aI72
aI52
asg4
I50
sg5
(lp154
I1781
aI1481
aI127
aI970
aI917
aI277
aI354
aI1930
aI1971
asg7
I56
sa(dp155
g2
(lp156
I58
aI13
aI17
aI45
aI54
aI53
aI74
aI85
aI78
aI75
aI40
aI6
aI86
aI84
aI34
aI2
aI77
aI18
aI52
aI39
asg4
I51
sg5
(lp157
I1099
aI1481
aI379
aI1659
aI550
aI426
aI379
aI545
aI495
aI843
aI42
aI1723
aI760
aI146
aI969
aI513
aI1971
asg7
I57
sa(dp158
g2
(lp159
I57
aI13
aI31
aI27
aI40
aI49
aI85
aI62
aI72
aI36
aI44
aI84
aI47
aI77
aI93
aI26
aI59
aI92
aI66
aI22
asg4
I52
sg5
(lp160
I1099
aI2008
aI970
aI743
aI1483
aI1481
aI662
aI360
aI354
aI1818
aI1971
asg7
I58
sa(dp161
g2
(lp162
I73
aI44
aI20
aI93
aI30
aI57
aI7
aI76
aI43
aI87
aI69
aI32
aI18
aI70
aI47
aI61
aI55
aI68
aI66
aI22
asg4
I53
sg5
(lp163
I1099
aI1481
aI379
aI684
aI970
aI379
aI1988
aI1085
aI1010
aI1791
aI1774
aI1747
aI379
aI900
aI1884
aI748
aI444
aI658
aI1582
aI1715
aI1184
aI659
aI1945
aI970
aI1109
aI354
aI379
aI1587
aI1971
asg7
I59
sa(dp164
g2
(lp165
I36
aI56
aI87
aI39
aI6
aI85
aI64
aI57
aI74
aI47
aI13
aI50
aI73
aI14
aI5
aI3
aI54
aI23
aI33
aI88
asg4
I54
sg5
(lp166
I1099
aI1078
aI1513
aI331
aI1594
aI354
aI379
aI370
aI1343
aI969
aI653
aI1930
aI152
aI1930
aI1971
asg7
I60
sa(dp167
g2
(lp168
I43
aI37
aI9
aI18
aI75
aI48
aI12
aI20
aI70
aI60
aI11
aI24
aI78
aI19
aI77
aI83
aI6
aI8
aI38
aI16
asg4
I55
sg5
(lp169
I1781
aI1481
aI379
aI346
aI970
aI1256
aI291
aI1971
asg7
I61
sa(dp170
g2
(lp171
I68
aI15
aI14
aI51
aI8
aI73
aI16
aI43
aI57
aI65
aI50
aI74
aI6
aI39
aI19
aI36
aI78
aI83
aI75
aI4
asg4
I56
sg5
(lp172
I684
aI1184
aI316
aI748
aI1481
aI905
aI1184
aI1
aI432
aI859
aI1746
aI1971
asg7
I62
sa(dp173
g2
(lp174
I85
aI73
aI87
aI36
aI75
aI49
aI12
aI27
aI50
aI79
aI24
aI65
aI19
aI74
aI47
aI37
aI56
aI45
aI58
aI39
asg4
I57
sg5
(lp175
I684
aI379
aI725
aI1612
aI1934
aI1066
aI600
aI354
aI702
aI330
asg7
I64
sa(dp176
g2
(lp177
I6
aI30
aI44
aI18
aI4
aI69
aI80
aI11
aI79
aI76
aI58
aI22
aI64
aI70
aI72
aI90
aI62
aI88
aI71
aI60
asg4
I58
sg5
(lp178
I1099
aI278
aI692
aI1158
aI175
aI354
aI180
aI1971
asg7
I65
sa(dp179
g2
(lp180
I34
aI20
aI64
aI48
aI38
aI54
aI61
aI15
aI23
aI36
aI45
aI12
aI75
aI31
aI85
aI51
aI69
aI4
aI37
aI92
asg4
I59
sg5
(lp181
I1781
aI851
aI1518
aI1003
aI379
aI684
aI152
aI692
aI1158
aI1971
asg7
I66
sa(dp182
g2
(lp183
I44
aI18
aI26
aI84
aI62
aI12
aI32
aI17
aI58
aI43
aI49
aI48
aI53
aI11
aI45
aI23
aI21
aI4
aI30
aI64
asg4
I60
sg5
(lp184
I121
aI853
aI335
aI1481
aI1952
aI354
aI379
aI50
aI2000
aI1712
aI1689
aI354
aI1620
aI152
aI147
aI1971
asg7
I68
sa(dp185
g2
(lp186
I53
aI3
aI20
aI49
aI83
aI64
aI87
aI6
aI72
aI17
aI47
aI33
aI88
aI70
aI16
aI57
aI39
aI42
aI65
aI12
asg4
I61
sg5
(lp187
I497
aI278
aI379
aI1049
aI151
aI1434
aI805
aI1556
aI1911
aI379
aI342
aI1971
asg7
I69
sa(dp188
g2
(lp189
I74
aI76
aI78
aI50
aI9
aI66
aI6
aI11
aI79
aI47
aI86
aI64
aI44
aI20
aI12
aI14
aI52
aI26
aI16
aI28
asg4
I62
sg5
(lp190
I829
aI1481
aI379
aI1647
aI1274
aI1971
asg7
I70
sa(dp191
g2
(lp192
I22
aI35
aI55
aI77
aI8
aI43
aI27
aI31
aI34
aI84
aI53
aI69
aI65
aI79
aI21
aI33
aI15
aI66
aI37
aI39
asg4
I63
sg5
(lp193
I1781
aI1965
aI379
aI2042
aI493
aI264
aI354
aI2042
aI227
aI1971
asg7
I71
sa(dp194
g2
(lp195
I45
aI49
aI59
aI92
aI17
aI54
aI16
aI70
aI90
aI61
aI87
aI62
aI8
aI13
aI39
aI24
aI74
aI78
aI12
aI58
asg4
I64
sg5
(lp196
I1099
aI862
aI1481
aI574
aI193
aI1003
aI345
aI1971
asg7
I72
sa(dp197
g2
(lp198
I72
aI65
aI15
aI76
aI47
aI87
aI56
aI42
aI32
aI30
aI44
aI58
aI37
aI54
aI16
aI62
aI45
aI11
aI84
aI78
asg4
I65
sg5
(lp199
I354
aI1774
aI698
aI1481
aI42
aI256
aI1166
aI1618
aI379
aI635
aI1676
aI1971
asg7
I73
sa(dp200
g2
(lp201
I39
aI33
aI44
aI75
aI40
aI66
aI49
aI50
aI8
aI36
aI17
aI3
aI68
aI84
aI87
aI85
aI70
aI6
aI12
aI92
asg4
I66
sg5
(lp202
I1774
aI1088
aI195
aI737
aI1764
aI379
aI2011
aI220
aI1095
aI426
aI1930
aI1971
asg7
I74
sa(dp203
g2
(lp204
I20
aI79
aI6
aI14
aI84
aI45
aI73
aI69
aI28
aI42
aI50
aI5
aI11
aI58
aI39
aI56
aI53
aI40
aI54
aI80
asg4
I67
sg5
(lp205
I1099
aI278
aI1634
aI622
aI426
aI1787
aI1971
asg7
I75
sa(dp206
g2
(lp207
I43
aI35
aI49
aI60
aI74
aI36
aI53
aI23
aI92
aI47
aI69
aI85
aI57
aI93
aI34
aI51
aI68
aI61
aI62
aI65
asg4
I68
sg5
(lp208
I1099
aI1481
aI379
aI684
aI970
aI379
aI894
aI265
aI1209
aI664
aI1618
aI379
aI952
aI391
aI231
aI1971
asg7
I76
sa(dp209
g2
(lp210
I61
aI83
aI24
aI31
aI4
aI64
aI78
aI17
aI49
aI44
aI62
aI22
aI28
aI42
aI70
aI58
aI53
aI68
aI38
aI73
asg4
I69
sg5
(lp211
I121
aI853
aI139
aI591
aI354
aI379
aI1147
aI970
aI1411
aI1971
asg7
I77
sa(dp212
g2
(lp213
I5
aI24
aI44
aI31
aI75
aI83
aI36
aI26
aI37
aI62
aI71
aI57
aI33
aI19
aI73
aI22
aI9
aI90
aI58
aI13
asg4
I70
sg5
(lp214
I121
aI853
aI1823
aI565
aI1451
aI278
aI994
aI878
aI1295
aI1971
asg7
I78
sa(dp215
g2
(lp216
I37
aI20
aI17
aI42
aI35
aI16
aI80
aI52
aI66
aI84
aI9
aI59
aI19
aI39
aI13
aI85
aI71
aI93
aI5
aI83
asg4
I71
sg5
(lp217
I1099
aI1481
aI379
aI334
aI1044
aI354
aI147
aI1971
asg7
I79
sa(dp218
g2
(lp219
I38
aI24
aI26
aI94
aI16
aI30
aI39
aI64
aI75
aI58
aI88
aI12
aI87
aI72
aI78
aI79
aI5
aI43
aI3
aI27
asg4
I72
sg5
(lp220
I1774
aI316
aI1481
aI1446
aI505
aI1896
aI1960
aI584
aI1971
asg7
I80
sa(dp221
g2
(lp222
I5
aI28
aI56
aI58
aI72
aI84
aI90
aI6
aI38
aI66
aI74
aI65
aI22
aI93
aI50
aI15
aI68
aI18
aI77
aI36
asg4
I73
sg5
(lp223
I1774
aI887
aI1312
aI1350
aI1663
aI1893
aI1609
aI1184
aI580
aI142
aI354
aI379
aI195
aI1971
asg7
I83
sa(dp224
g2
(lp225
I35
aI14
aI11
aI27
aI78
aI43
aI38
aI36
aI13
aI62
aI24
aI59
aI64
aI83
aI28
aI20
aI8
aI33
aI75
aI15
asg4
I74
sg5
(lp226
I1099
aI1481
aI104
aI505
aI672
aI646
aI1960
aI1971
asg7
I84
sa(dp227
g2
(lp228
I55
aI64
aI37
aI88
aI59
aI47
aI39
aI90
aI38
aI78
aI12
aI5
aI35
aI8
aI6
aI87
aI49
aI71
aI32
aI9
asg4
I75
sg5
(lp229
I1020
aI1099
aI1546
aI278
aI740
aI281
aI622
aI686
aI1971
asg7
I85
sa(dp230
g2
(lp231
I72
aI17
aI50
aI22
aI74
aI64
aI84
aI38
aI20
aI21
aI51
aI92
aI8
aI90
aI42
aI61
aI52
aI30
aI66
aI87
asg4
I76
sg5
(lp232
I1781
aI1481
aI379
aI1053
aI970
aI1600
aI1971
asg7
I86
sa(dp233
g2
(lp234
I55
aI56
aI13
aI15
aI16
aI35
aI94
aI78
aI19
aI53
aI69
aI93
aI74
aI44
aI31
aI37
aI4
aI40
aI83
aI27
asg4
I77
sg5
(lp235
I1774
aI737
aI354
aI50
aI1764
aI379
aI1896
aI1253
aI970
aI1367
aI178
aI1145
aI1971
asg7
I87
sa(dp236
g2
(lp237
I37
aI4
aI42
aI30
aI73
aI2
aI3
aI14
aI93
aI57
aI66
aI43
aI32
aI36
aI34
aI16
aI69
aI5
aI54
aI28
asg4
I78
sg5
(lp238
I1781
aI292
aI379
aI706
aI98
aI354
aI379
aI1203
aI1996
aI1971
asg7
I88
sa(dp239
g2
(lp240
I21
aI27
aI38
aI12
aI35
aI62
aI6
aI16
aI66
aI50
aI75
aI37
aI59
aI86
aI73
aI55
aI18
aI68
aI5
aI74
asg4
I79
sg5
(lp241
I1781
aI725
aI961
aI379
aI1706
aI1971
asg7
I90
sa(dp242
g2
(lp243
I32
aI51
aI39
aI85
aI48
aI79
aI68
aI33
aI26
aI94
aI4
aI90
aI17
aI36
aI2
aI69
aI76
aI44
aI31
aI9
asg4
I80
sg5
(lp244
I1099
aI316
aI1481
aI379
aI939
aI1965
aI41
aI970
aI1557
aI1971
asg7
I92
sa(dp245
g2
(lp246
I9
aI73
aI68
aI19
aI49
aI38
aI87
aI31
aI64
aI53
aI24
aI21
aI8
aI80
aI72
aI88
aI40
aI7
aI37
aI69
asg4
I81
sg5
(lp247
I829
aI1481
aI379
aI2011
aI1371
aI354
aI147
aI1971
asg7
I93
sa(dp248
g2
(lp249
I53
aI64
aI58
aI70
aI16
aI37
aI30
aI12
aI32
aI39
aI28
aI47
aI80
aI13
aI15
aI11
aI76
aI71
aI86
aI93
asg4
I82
sg5
(lp250
I1099
aI1481
aI379
aI683
aI426
aI379
aI1104
aI970
aI1051
aI1866
aI1691
aI354
aI1184
aI107
aI1314
aI1971
asg7
I94
sa.