(dp0
S'magnetic'
p1
I1
sS'four'
p2
I20
sS'protest'
p3
I3
sS'nursery'
p4
I4
sS'controversial'
p5
I5
sS'mansion'
p6
I6
sS'captain'
p7
I7
sS'poorly'
p8
I8
sS'whose'
p9
I9
sS'calculate'
p10
I55
sS'paris'
p11
I11
sS'under'
p12
I12
sS'indonesia-malaysia'
p13
I13
sS'worth'
p14
I14
sS'slow-moving'
p15
I15
sS'risk'
p16
I16
sS'distort'
p17
I17
sS'jack'
p18
I18
sS'vast'
p19
I19
sS'uzbekistan'
p20
I2
sS'school'
p21
I21
sS'scholar'
p22
I163
sS'cause'
p23
I1715
sS'wednesday'
p24
I24
sS'succession'
p25
I25
sS'clothes'
p26
I26
sS'eileen'
p27
I27
sS'force'
p28
I28
sS'japanese'
p29
I29
sS'second'
p30
I30
sS'street'
p31
I31
sS'kidnap'
p32
I32
sS'even'
p33
I33
sS'christ'
p34
I35
sS'ruthless'
p35
I37
sS'panama'
p36
I38
sS'liberty'
p37
I39
sS'conduct'
p38
I280
sS'supplier'
p39
I41
sS'new'
p40
I42
sS'ever'
p41
I43
sS'admiral'
p42
I44
sS'pestotnik'
p43
I45
sS'med'
p44
I46
sS'meg'
p45
I47
sS'never'
p46
I48
sS'here'
p47
I49
sS'china'
p48
I50
sS'000-year-old'
p49
I51
sS'giroux'
p50
I324
sS'herr'
p51
I53
sS'froglike'
p52
I54
sS'kudos'
p53
I56
sS'daughter'
p54
I57
sS'over-priced'
p55
I58
sS'study'
p56
I59
sS'envoy'
p57
I60
sS'precede'
p58
I348
sS'jame'
p59
I62
sS'military'
p60
I63
sS'golden'
p61
I64
sS'swearing'
p62
I65
sS'campaign'
p63
I66
sS'bayonet'
p64
I67
sS'weevil'
p65
I68
sS'visible'
p66
I69
sS'fournier'
p67
I70
sS'cassini'
p68
I71
sS'welch'
p69
I72
sS'total'
p70
I73
sS'unit'
p71
I74
sS'rancho'
p72
I75
sS'dna'
p73
I76
sS'would'
p74
I77
sS'army'
p75
I78
sS'liftoff'
p76
I79
sS'hospital'
p77
I80
sS'left-sided'
p78
I81
sS'music'
p79
I82
sS'm3'
p80
I83
sS'tell'
p81
I84
sS'bakker'
p82
I1069
sS'successful'
p83
I86
sS'oscar'
p84
I87
sS'georgian'
p85
I88
sS'award'
p86
I89
sS'glass'
p87
I90
sS'berlin'
p88
I91
sS'ward'
p89
I92
sS'hold'
p90
I93
sS'shoot'
p91
I94
sS'join'
p92
I537
sS'pursue'
p93
I96
sS'work'
p94
I97
sS'worm'
p95
I98
sS'mt'
p96
I99
sS'grover'
p97
I100
sS'era'
p98
I101
sS'ms'
p99
I102
sS'mr'
p100
I103
sS'grenada'
p101
I104
sS'my'
p102
I105
sS'decorative'
p103
I106
sS'give'
p104
I107
sS'household'
p105
I108
sS'bennett'
p106
I109
sS'india'
p107
I110
sS'mayhem'
p108
I601
sS'want'
p109
I112
sS'appointment'
p110
I1073
sS'david'
p111
I1730
sS'ceremony'
p112
I115
sS'end'
p113
I116
sS'recovery'
p114
I117
sS'provide'
p115
I118
sS'travel'
p116
I119
sS'damage'
p117
I120
sS'how'
p118
I121
sS'gate'
p119
I122
sS'beach'
p120
I123
sS'massive'
p121
I124
sS'after'
p122
I125
sS'vocalization'
p123
I126
sS'president'
p124
I127
sS'law'
p125
I128
sS'attempt'
p126
I129
sS'effective'
p127
I130
sS'amid'
p128
I131
sS'41st'
p129
I132
sS'headquarters'
p130
I133
sS'criss-crossed'
p131
I134
sS'maintain'
p132
I135
sS'green'
p133
I136
sS'enter'
p134
I137
sS'21-year-old'
p135
I138
sS'inhabitant'
p136
I139
sS'harlem'
p137
I140
sS'greed'
p138
I141
sS'office'
p139
I142
sS'hectare'
p140
I143
sS'over'
p141
I144
sS'murray'
p142
I145
sS'london'
p143
I146
sS'japan'
p144
I147
sS'mayor'
p145
I148
sS'hip-hop'
p146
I149
sS'before'
p147
I150
sS'fix'
p148
I860
sS'teng-hui'
p149
I1854
sS','
p150
I152
sS'crew'
p151
I153
sS'better'
p152
I154
sS'production'
p153
I155
sS'yaroslavl'
p154
I156
sS'stalemate'
p155
I157
sS'then'
p156
I158
sS'break'
p157
I160
sS'they'
p158
I161
sS'bank'
p159
I162
sS'prize'
p160
I22
sS'meat'
p161
I164
sS'sleepless'
p162
I165
sS'koresh'
p163
I1738
sS'detroit'
p164
I168
sS'explode'
p165
I169
sS'newport'
p166
I170
sS'conflict'
p167
I1418
sS'each'
p168
I172
sS'side'
p169
I173
sS'carlos'
p170
I174
sS'mean'
p171
I175
sS'interscope'
p172
I176
sS'burial'
p173
I177
sS'financial'
p174
I178
sS'series'
p175
I179
sS'spanish'
p176
I180
sS'solution'
p177
I181
sS'anti-'
p178
I182
sS'navy'
p179
I183
sS'saturday'
p180
I184
sS'decree'
p181
I185
sS'god'
p182
I186
sS'diesel'
p183
I187
sS'semiconductor'
p184
I188
sS're'
p185
I189
sS'medicine'
p186
I190
sS'newly'
p187
I191
sS'barrier'
p188
I192
sS'associate'
p189
I193
sS'canaveral'
p190
I194
sS'u.s.'
p191
I195
sS'fred'
p192
I196
sS'struggle'
p193
I197
sS'estimate'
p194
I198
sS'aisle'
p195
I199
sS'enormous'
p196
I200
sS'signature'
p197
I201
sS'r.'
p198
I202
sS'clouding'
p199
I203
sS'industrial'
p200
I204
sS'primary'
p201
I205
sS'rank'
p202
I206
sS'hearing'
p203
I207
sS'another'
p204
I208
sS'calorie'
p205
I209
sS'mercury'
p206
I210
sS'timothy'
p207
I211
sS'basketball'
p208
I212
sS'service'
p209
I213
sS'nickname'
p210
I1423
sS'top'
p211
I215
sS'carry'
p212
I733
sS'too'
p213
I217
sS'hollywood'
p214
I218
sS'john'
p215
I219
sS'murder'
p216
I220
sS'serve'
p217
I221
sS'direct'
p218
I222
sS'nirvana'
p219
I223
sS'western'
p220
I224
sS'symptom'
p221
I225
sS'distance'
p222
I226
sS'trek'
p223
I227
sS'maglev'
p224
I228
sS'target'
p225
I229
sS'rampage'
p226
I230
sS'tree'
p227
I231
sS'rate'
p228
I1095
sS'ebay'
p229
I233
sS'matter'
p230
I234
sS'solomon'
p231
I235
sS'iron'
p232
I236
sS'haye'
p233
I237
sS'rap'
p234
I238
sS'seem'
p235
I239
sS'seek'
p236
I240
sS'relatively'
p237
I241
sS'responsible'
p238
I242
sS'-'
p239
I243
sS'self-defense'
p240
I244
sS'chest'
p241
I245
sS'amusing'
p242
I246
sS'thoma'
p243
I247
sS'blue'
p244
I248
sS'though'
p245
I249
sS'visionary'
p246
I250
sS'panel'
p247
I1977
sS'landmark'
p248
I1431
sS'germany'
p249
I252
sS'marie'
p250
I253
sS'jean'
p251
I254
sS'maria'
p252
I255
sS'zealand'
p253
I256
sS'singer'
p254
I257
sS'episode'
p255
I258
sS'observation'
p256
I259
sS'aung'
p257
I260
sS'camp'
p258
I261
sS'm'
p259
I262
sS'treaty'
p260
I263
sS'enterprise'
p261
I264
sS'anticancer'
p262
I265
sS'consumer'
p263
I266
sS'lewis'
p264
I267
sS'retire'
p265
I268
sS'pave'
p266
I1821
sS'earth'
p267
I269
sS'northeast'
p268
I270
sS'explain'
p269
I272
sS'bush'
p270
I273
sS'announce'
p271
I274
sS'sror'
p272
I275
sS'oct'
p273
I276
sS'rica'
p274
I277
sS'do'
p275
I278
sS'klein'
p276
I279
sS'endorse'
p277
I40
sS'stop'
p278
I281
sS'umbilical'
p279
I282
sS'psychiatric'
p280
I283
sS'watson'
p281
I284
sS'tuberculosis'
p282
I285
sS'report'
p283
I286
sS'saturn'
p284
I287
sS'comply'
p285
I288
sS'spilling'
p286
I289
sS'hospitalize'
p287
I290
sS'piggy'
p288
I291
sS'release'
p289
I292
sS'bashar'
p290
I293
sS'conant'
p291
I294
sS'disaster'
p292
I295
sS'observer'
p293
I296
sS'straus'
p294
I297
sS'best'
p295
I298
sS'subject'
p296
I299
sS'capacity'
p297
I300
sS'manson'
p298
I301
sS'sail'
p299
I302
sS'score'
p300
I303
sS'cooperation'
p301
I304
sS'approach'
p302
I305
sS'discovery'
p303
I306
sS'accord'
p304
I307
sS'nature'
p305
I308
sS'harvard'
p306
I309
sS'wear'
p307
I310
sS'news'
p308
I311
sS'debt'
p309
I312
sS'improve'
p310
I313
sS'cow'
p311
I314
sS'disdain'
p312
I315
sS'country'
p313
I316
sS'against'
p314
I317
sS'mhus'
p315
I1479
sS'malott'
p316
I318
sS'mildly'
p317
I319
sS'haa'
p318
I320
sS'southeastern'
p319
I321
sS'tone'
p320
I322
sS'height'
p321
I323
sS'cult'
p322
I52
sS'canyon'
p323
I325
sS'dougla'
p324
I326
sS'bureaucratic'
p325
I327
sS'raisian'
p326
I762
sS'three'
p327
I329
sS'.'
p328
I330
sS'submarine'
p329
I331
sS'much'
p330
I332
sS'noel'
p331
I333
sS'tallest'
p332
I334
sS'life'
p333
I335
sS'worker'
p334
I337
sS'craft'
p335
I338
sS'child'
p336
I339
sS'teapot'
p337
I340
sS'presidency'
p338
I341
sS'air'
p339
I342
sS'aim'
p340
I343
sS'near'
p341
I344
sS'aid'
p342
I345
sS'property'
p343
I901
sS'davenport'
p344
I347
sS'settler'
p345
I949
sS'seven'
p346
I349
sS'it'
p347
I350
sS'ii'
p348
I351
sS'player'
p349
I352
sS'cone'
p350
I353
sS'in'
p351
I354
sS'prudhomme'
p352
I355
sS'conditioner'
p353
I356
sS'seattle'
p354
I357
sS'if'
p355
I358
sS'alien'
p356
I1553
sS'perform'
p357
I359
sS'make'
p358
I360
sS'mummified'
p359
I361
sS'jerry'
p360
I362
sS'complex'
p361
I363
sS'several'
p362
I364
sS'ambassadorial'
p363
I365
sS'voyager'
p364
I366
sS'horus'
p365
I367
sS'evil'
p366
I368
sS'hand'
p367
I369
sS'norwegian'
p368
I370
sS'opportunity'
p369
I372
sS'cycle'
p370
I373
sS'inherit'
p371
I374
sS'ocean'
p372
I375
sS'rome'
p373
I376
sS'greatest'
p374
I377
sS'mother'
p375
I378
sS'the'
p376
I379
sS'corporate'
p377
I380
sS'fermilab'
p378
I381
sS'unified'
p379
I382
sS'letterman'
p380
I383
sS'just'
p381
I384
sS'sentence'
p382
I385
sS'newton'
p383
I386
sS'identify'
p384
I388
sS'thanks'
p385
I389
sS'yet'
p386
I390
sS'yew'
p387
I391
sS'candidate'
p388
I392
sS'cornell'
p389
I393
sS'photographer'
p390
I394
sS'character'
p391
I395
sS'chandra'
p392
I396
sS'shout'
p393
I397
sS'board'
p394
I398
sS'prison'
p395
I399
sS'east'
p396
I400
sS'hat'
p397
I401
sS'humanity'
p398
I402
sS'bandy'
p399
I403
sS'involuntary'
p400
I404
sS'arab'
p401
I406
sS'boxer'
p402
I407
sS'birth'
p403
I159
sS'cape'
p404
I409
sS'advanced'
p405
I410
sS'apart'
p406
I411
sS'officer'
p407
I412
sS'night'
p408
I413
sS'notorious'
p409
I414
sS'attorney'
p410
I415
sS'right'
p411
I416
sS'old'
p412
I417
sS'crowd'
p413
I418
sS'people'
p414
I419
sS'pyongyang'
p415
I420
sS'jennifer'
p416
I421
sS'malaysia'
p417
I422
sS'donald'
p418
I423
sS'election'
p419
I424
sS'megastore'
p420
I425
sS'for'
p421
I426
sS'florence'
p422
I1134
sS'fox'
p423
I428
sS'ice'
p424
I523
sS'kibbutz'
p425
I784
sS'fog'
p426
I431
sS'levitation'
p427
I432
sS'boll'
p428
I433
sS'discount'
p429
I434
sS'newcomer'
p430
I577
sS'plo'
p431
I436
sS'brokerage'
p432
I437
sS'manufacturing'
p433
I438
sS'super'
p434
I439
sS'plug'
p435
I440
sS'leominster'
p436
I441
sS'palestinian'
p437
I442
sS'globetrotter'
p438
I443
sS'surround'
p439
I444
sS'magazine'
p440
I445
sS'sacajawea'
p441
I639
sS'slightly'
p442
I447
sS'marshal'
p443
I448
sS'nixon'
p444
I449
sS'nerve'
p445
I658
sS'profession'
p446
I451
sS'son'
p447
I452
sS'down'
p448
I453
sS'entrepreneur'
p449
I454
sS'dean'
p450
I455
sS'cafeteria'
p451
I456
sS'often'
p452
I1464
sS'rely'
p453
I458
sS'deal'
p454
I459
sS'support'
p455
I460
sS'tennis'
p456
I461
sS'nova'
p457
I462
sS'fight'
p458
I734
sS'virgin'
p459
I464
sS'way'
p460
I465
sS'call'
p461
I466
sS'gil'
p462
I467
sS'war'
p463
I468
sS'head'
p464
I469
sS'successfully'
p465
I470
sS'amateur'
p466
I471
sS'form'
p467
I472
sS'offer'
p468
I473
sS'failure'
p469
I474
sS'solar'
p470
I475
sS'syndicate'
p471
I476
sS'blindness'
p472
I477
sS'genjus'
p473
I478
sS'analyst'
p474
I479
sS'inside'
p475
I481
sS'until'
p476
I482
sS'southernmost'
p477
I483
sS'diagnose'
p478
I484
sS'passenger'
p479
I485
sS'adopt'
p480
I486
sS'classic'
p481
I875
sS'peruvian'
p482
I488
sS'drive'
p483
I794
sS"''"
p484
I491
sS'scotia'
p485
I492
sS'ship'
p486
I493
sS'magellan'
p487
I494
sS'trip'
p488
I495
sS'no'
p489
I496
sS'when'
p490
I497
sS'cambodia'
p491
I927
sS'role'
p492
I499
sS'prusiner'
p493
I616
sS'test'
p494
I501
sS'tie'
p495
I502
sS'tic'
p496
I503
sS'exporter'
p497
I504
sS"'s"
p498
I505
sS'faction'
p499
I506
sS'why'
p500
I1785
sS'round-the-world'
p501
I507
sS'weekend'
p502
I508
sS'billion'
p503
I509
sS'bullet'
p504
I510
sS'assume'
p505
I511
sS'sigma'
p506
I799
sS'concorde'
p507
I513
sS'together'
p508
I514
sS'time'
p509
I515
sS'saloth'
p510
I516
sS'coach'
p511
I517
sS'chain'
p512
I1126
sS'jolson'
p513
I519
sS'invent'
p514
I520
sS'mild'
p515
I521
sS'mile'
p516
I522
sS'/'
p517
I429
sS'muppet'
p518
I525
sS'suicide'
p519
I526
sS'william'
p520
I1539
sS'everything'
p521
I527
sS'technique'
p522
I528
sS'father'
p523
I529
sS'henderson'
p524
I530
sS'division'
p525
I531
sS'protective'
p526
I532
sS'string'
p527
I533
sS'right-sided'
p528
I534
sS'embark'
p529
I535
sS'cook'
p530
I536
sS'word'
p531
I95
sS'blast'
p532
I538
sS'ophthalmologist'
p533
I539
sS'die'
p534
I541
sS'leave'
p535
I542
sS'team'
p536
I543
sS'guy'
p537
I544
sS'round'
p538
I545
sS'upper'
p539
I546
sS'discover'
p540
I547
sS'affiliation'
p541
I548
sS'heavyweight'
p542
I1276
sS'cost'
p543
I550
sS'alfr'
p544
I551
sS'port'
p545
I552
sS'educate'
p546
I553
sS'constitution'
p547
I554
sS'komsomolet'
p548
I555
sS'current'
p549
I557
sS'suspect'
p550
I558
sS'international'
p551
I559
sS'appeal'
p552
I560
sS'boost'
p553
I561
sS'jury'
p554
I562
sS'slaying'
p555
I563
sS'henry'
p556
I727
sS'baseball'
p557
I565
sS'singer-rapper'
p558
I566
sS'alone'
p559
I567
sS'along'
p560
I568
sS'teacher'
p561
I569
sS'change'
p562
I570
sS'wait'
p563
I571
sS'brilliant'
p564
I572
sS'step'
p565
I1487
sS'commonly'
p566
I574
sS'trial'
p567
I575
sS'usually'
p568
I576
sS'corp'
p569
I435
sS'rafael'
p570
I578
sS'reclaim'
p571
I579
sS'elect'
p572
I580
sS'capriati'
p573
I581
sS'fbi'
p574
I582
sS'schenectady'
p575
I583
sS'market'
p576
I584
sS'transplant'
p577
I585
sS'troops'
p578
I586
sS'ande'
p579
I587
sS'angele'
p580
I588
sS'visit'
p581
I589
sS'france'
p582
I590
sS'live'
p583
I591
sS'andy'
p584
I592
sS'australian'
p585
I593
sS'today'
p586
I594
sS'high-speed'
p587
I595
sS'``'
p588
I596
sS'club'
p589
I597
sS'refrain'
p590
I598
sS'effort'
p591
I599
sS'fly'
p592
I600
sS'currency'
p593
I111
sS'car'
p594
I602
sS'rutherford'
p595
I603
sS'can'
p596
I604
sS'fla'
p597
I605
sS'making'
p598
I606
sS'spy'
p599
I607
sS'kyi'
p600
I608
sS'performer'
p601
I609
sS'nursing'
p602
I610
sS'predict'
p603
I611
sS'december'
p604
I612
sS'agent'
p605
I613
sS'stroke'
p606
I614
sS'council'
p607
I615
sS'clothing'
p608
I617
sS'occur'
p609
I618
sS'swedish'
p610
I619
sS'savoy'
p611
I620
sS'brand'
p612
I2008
sS'write'
p613
I622
sS'immune'
p614
I623
sS'sunday'
p615
I624
sS'vital'
p616
I625
sS's.'
p617
I626
sS'criminal'
p618
I1875
sS'unbelievable'
p619
I627
sS'designer'
p620
I628
sS'explorer'
p621
I629
sS'wicca'
p622
I630
sS'eight-day'
p623
I1171
sS'may'
p624
I632
sS'overall'
p625
I1820
sS'spot'
p626
I634
sS'anzus'
p627
I635
sS'mac'
p628
I636
sS'birthday'
p629
I637
sS'mad'
p630
I1733
sS'commit'
p631
I446
sS'date'
p632
I640
sS'such'
p633
I641
sS'flourish'
p634
I642
sS'grow'
p635
I643
sS'kaposi'
p636
I644
sS'supersonic'
p637
I645
sS'commodity'
p638
I646
sS'joint'
p639
I1822
sS'6th'
p640
I648
sS'kurd'
p641
I649
sS'tale'
p642
I650
sS'switch'
p643
I651
sS'truck'
p644
I652
sS'hassan'
p645
I654
sS'kurt'
p646
I655
sS'talk'
p647
I656
sS'side-scan'
p648
I657
sS'duke'
p649
I450
sS'gradual'
p650
I659
sS'kafka'
p651
I660
sS'cold'
p652
I661
sS'still'
p653
I662
sS'worship'
p654
I663
sS'derive'
p655
I664
sS'group'
p656
I665
sS'acknowledge'
p657
I666
sS'jim'
p658
I667
sS'attraction'
p659
I668
sS'window'
p660
I669
sS'mckinley'
p661
I670
sS'a.k.a'
p662
I671
sS'main'
p663
I672
sS'downsizing'
p664
I673
sS'finance'
p665
I674
sS'introduce'
p666
I675
sS'nation'
p667
I676
sS'hale'
p668
I677
sS'not'
p669
I678
sS'feature'
p670
I679
sS'now'
p671
I680
sS'hall'
p672
I681
sS'concerto'
p673
I682
sS'term'
p674
I683
sS'name'
p675
I684
sS'glam-rock'
p676
I685
sS'opera'
p677
I686
sS'drop'
p678
I687
sS'revert'
p679
I688
sS'fisherman'
p680
I689
sS'rock'
p681
I690
sS'quarter'
p682
I691
sS'el'
p683
I692
sS'square'
p684
I693
sS'retrieve'
p685
I694
sS'ailment'
p686
I695
sS'challenger'
p687
I696
sS'sponsor'
p688
I697
sS'year'
p689
I698
sS'girl'
p690
I699
sS'costliest'
p691
I700
sS'jackson'
p692
I701
sS'space'
p693
I702
sS'profit'
p694
I703
sS'increase'
p695
I704
sS'12-year-old'
p696
I705
sS'internet'
p697
I706
sS'dominate'
p698
I707
sS'earlier'
p699
I708
sS'theory'
p700
I709
sS'siege'
p701
I710
sS'million'
p702
I711
sS'3-year-old'
p703
I712
sS'quark'
p704
I713
sS'california'
p705
I216
sS'nightingale'
p706
I1828
sS'___'
p707
I716
sS'ominous'
p708
I717
sS'advance'
p709
I718
sS'impose'
p710
I719
sS'gusto'
p711
I720
sS'british'
p712
I721
sS'turn'
p713
I722
sS'place'
p714
I723
sS'gordon'
p715
I724
sS'first'
p716
I725
sS'sanchez'
p717
I726
sS'revenue'
p718
I728
sS'symbolic'
p719
I729
sS'one'
p720
I730
sS'fast'
p721
I1500
sS'conifer'
p722
I732
sS'vote'
p723
I1141
sS'open'
p724
I735
sS'george'
p725
I736
sS'city'
p726
I737
sS'little'
p727
I738
sS'rossinus'
p728
I740
sS'plastic'
p729
I741
sS'realization'
p730
I742
sS'white'
p731
I743
sS'cite'
p732
I744
sS'friend'
p733
I745
sS'subplot'
p734
I746
sS'allegedly'
p735
I747
sS'that'
p736
I748
sS'season'
p737
I749
sS'moscow'
p738
I750
sS'alan'
p739
I751
sS'grunt'
p740
I753
sS'than'
p741
I754
sS'inventor'
p742
I755
sS'television'
p743
I756
sS'12'
p744
I757
sS'r'
p745
I758
sS'swearing-in'
p746
I759
sS'and'
p747
I760
sS'san'
p748
I761
sS'angel'
p749
I328
sS'say'
p750
I763
sS'conspiracy'
p751
I764
sS'rent'
p752
I765
sS'financier'
p753
I766
sS'sar'
p754
I767
sS'recover'
p755
I768
sS'any'
p756
I769
sS'el-banna'
p757
I770
sS'nuanced'
p758
I771
sS'veteran'
p759
I772
sS'consortium'
p760
I773
sS'note'
p761
I774
sS'ideal'
p762
I775
sS'jefferson'
p763
I776
sS'take'
p764
I777
sS'-rsb-'
p765
I1768
sS'golan'
p766
I556
sS'begin'
p767
I779
sS'hoover'
p768
I780
sS'pain'
p769
I781
sS'spangled'
p770
I782
sS'normal'
p771
I783
sS'track'
p772
I430
sS'price'
p773
I785
sS'woodrow'
p774
I786
sS'tracy'
p775
I787
sS'cuban'
p776
I788
sS'democratic'
p777
I789
sS'especially'
p778
I480
sS'angst'
p779
I791
sS'later'
p780
I792
sS'steady'
p781
I793
sS'sale'
p782
I490
sS'beaded'
p783
I795
sS'bopp'
p784
I796
sS'nuclear'
p785
I1838
sS'senior'
p786
I798
sS'salt'
p787
I512
sS'shop'
p788
I800
sS'rating'
p789
I801
sS'madison'
p790
I802
sS'laureate'
p791
I1839
sS'shot'
p792
I804
sS'show'
p793
I805
sS'nld'
p794
I806
sS'demonstrator'
p795
I807
sS'corner'
p796
I808
sS'adhere'
p797
I1060
sS'fibre'
p798
I809
sS'ratio'
p799
I810
sS'title'
p800
I811
sS'miami'
p801
I1949
sS'treasure'
p802
I812
sS'crime'
p803
I813
sS'only'
p804
I814
sS'wood'
p805
I815
sS'black'
p806
I816
sS'zittrain'
p807
I817
sS'congressional'
p808
I818
sS'foreign-invested'
p809
I819
sS'get'
p810
I820
sS'soon'
p811
I1194
sS'nearly'
p812
I822
sS'artist'
p813
I823
sS'dramas'
p814
I824
sS'borrow'
p815
I825
sS'morning'
p816
I826
sS'roger'
p817
I827
sS'sonar'
p818
I828
sS'where'
p819
I829
sS'husband'
p820
I830
sS'1949-52'
p821
I831
sS'wenonah'
p822
I832
sS'seat'
p823
I834
sS'j.'
p824
I835
sS'stanley'
p825
I836
sS'surgery'
p826
I837
sS'sport'
p827
I838
sS'wonder'
p828
I839
sS'bizkit'
p829
I840
sS'federal'
p830
I841
sS'label'
p831
I842
sS'between'
p832
I843
sS'august'
p833
I844
sS'parent'
p834
I845
sS'screen'
p835
I846
sS'vilar'
p836
I1912
sS'dome'
p837
I847
sS'supermarket'
p838
I848
sS'guitar'
p839
I849
sS'nationality'
p840
I850
sS'come'
p841
I851
sS'saratoga'
p842
I852
sS'many'
p843
I853
sS'region'
p844
I854
sS'dedicate'
p845
I855
sS'tour'
p846
I856
sS'comet'
p847
I858
sS'railway'
p848
I859
sS'howdy'
p849
I151
sS'among'
p850
I861
sS'cancer'
p851
I862
sS'color'
p852
I863
sS'pot'
p853
I864
sS'period'
p854
I865
sS'insist'
p855
I866
sS'nimitz'
p856
I867
sS'pol'
p857
I868
sS'388ft'
p858
I869
sS'bizarre'
p859
I870
sS'turkey'
p860
I871
sS'unusual'
p861
I872
sS'howard'
p862
I873
sS'west'
p863
I874
sS'-rrb-'
p864
I487
sS'ucla'
p865
I876
sS'columbia'
p866
I1901
sS'tropical'
p867
I877
sS'gehrig'
p868
I878
sS'helicopter'
p869
I879
sS'prototype'
p870
I880
sS'direction'
p871
I881
sS'enable'
p872
I882
sS'cobain'
p873
I883
sS'thousand'
p874
I884
sS'observe'
p875
I885
sS'minister'
p876
I886
sS'former'
p877
I887
sS'dockland'
p878
I888
sS'pilot'
p879
I889
sS'sound'
p880
I1070
sS'these'
p881
I891
sS'cash'
p882
I892
sS'roddenberry'
p883
I893
sS'promising'
p884
I894
sS'shepard'
p885
I895
sS'eventually'
p886
I896
sS'commander'
p887
I897
sS'hidatsa'
p888
I898
sS'kenya'
p889
I899
sS'protein'
p890
I900
sS'technology'
p891
I902
sS'decisively'
p892
I903
sS'worry'
p893
I904
sS'develop'
p894
I905
sS'author'
p895
I906
sS'pay'
p896
I1190
sS'edwin'
p897
I908
sS'same'
p898
I910
sS'pad'
p899
I911
sS'week'
p900
I912
sS'oil'
p901
I913
sS'singapore'
p902
I914
sS'director'
p903
I915
sS'senator'
p904
I916
sS'costa'
p905
I917
sS'accountable'
p906
I1292
sS'model'
p907
I921
sS'scholarship'
p908
I922
sS'peace'
p909
I1532
sS'money'
p910
I923
sS'actress'
p911
I924
sS'kill'
p912
I926
sS'actor'
p913
I498
sS'harrison'
p914
I928
sS'death'
p915
I929
sS'bowie'
p916
I980
sS'beagle'
p917
I931
sS'treatment'
p918
I932
sS'real'
p919
I933
sS'around'
p920
I934
sS'virginia'
p921
I935
sS'early'
p922
I936
sS'traffic'
p923
I937
sS'teen-age'
p924
I938
sS'world'
p925
I939
sS'lady'
p926
I940
sS'dare'
p927
I941
sS'fortune'
p928
I942
sS'particle'
p929
I943
sS'kennedy'
p930
I944
sS'collective'
p931
I945
sS'benefit'
p932
I946
sS't'
p933
I947
sS'beverly'
p934
I948
sS'tower'
p935
I950
sS'debut'
p936
I951
sS'pacific'
p937
I952
sS'astronomer'
p938
I953
sS'accomplice'
p939
I954
sS'gross'
p940
I955
sS'channel'
p941
I778
sS'sudan'
p942
I958
sS'highest'
p943
I2011
sS'legal'
p944
I959
sS'pioneer'
p945
I960
sS'circumnavigate'
p946
I961
sS'mosley'
p947
I962
sS'abercrombie'
p948
I963
sS'business'
p949
I964
sS'seconds'
p950
I965
sS'volkswagen'
p951
I966
sS'seven-year'
p952
I967
sS'_'
p953
I968
sS'on'
p954
I969
sS'of'
p955
I970
sS'industry'
p956
I971
sS'taxol'
p957
I972
sS'ideology'
p958
I973
sS'oz'
p959
I974
sS'act'
p960
I975
sS'johnston'
p961
I976
sS'or'
p962
I977
sS'road'
p963
I978
sS'tribe'
p964
I979
sS'communication'
p965
I1687
sS'image'
p966
I981
sS'legged'
p967
I982
sS'vacation'
p968
I983
sS'charle'
p969
I984
sS'elementary'
p970
I985
sS'technically'
p971
I986
sS'prepare'
p972
I987
sS'area'
p973
I988
sS'there'
p974
I989
sS'philadelphia'
p975
I990
sS'hertz'
p976
I991
sS'start'
p977
I992
sS'galvanize'
p978
I993
sS'lou'
p979
I994
sS'napster'
p980
I995
sS'tycoon'
p981
I996
sS'grunge'
p982
I997
sS'hoda'
p983
I998
sS'warrington'
p984
I999
sS'cabinet'
p985
I1000
sS'shureimon'
p986
I1001
sS'charlestown'
p987
I1002
sS'with'
p988
I1003
sS'october'
p989
I1004
sS'romantic'
p990
I1006
sS'stanford'
p991
I1007
sS'agree'
p992
I1008
sS'taylor'
p993
I1009
sS'autoimmune'
p994
I1010
sS'ad'
p995
I1011
sS'johnny'
p996
I1012
sS'deet'
p997
I1013
sS'describe'
p998
I1014
sS'al'
p999
I1015
sS'deep'
p1000
I1016
sS'general'
p1001
I1017
sS'as'
p1002
I1018
sS'deem'
p1003
I1019
sS'at'
p1004
I1020
sS'file'
p1005
I1021
sS'ax'
p1006
I1022
sS'dreamgirl'
p1007
I1023
sS'syrian'
p1008
I1024
sS'film'
p1009
I1025
sS'4.2'
p1010
I1026
sS'collin'
p1011
I1027
sS'compel'
p1012
I1028
sS'insurance'
p1013
I1225
sS'field'
p1014
I1030
sS'summit'
p1015
I1547
sS'astronaut'
p1016
I1032
sS'you'
p1017
I1033
sS'sully'
p1018
I1034
sS'briefly'
p1019
I1035
sS'computer-generated'
p1020
I1036
sS'congress'
p1021
I1037
sS'separate'
p1022
I1038
sS'a.'
p1023
I1039
sS'important'
p1024
I1040
sS'brotherhood'
p1025
I1041
sS'tackle'
p1026
I1042
sS'peugeot'
p1027
I1043
sS'building'
p1028
I1044
sS'havana'
p1029
I1045
sS'bilateral'
p1030
I1046
sS'wife'
p1031
I1047
sS'mass'
p1032
I1048
sS'original'
p1033
I1049
sS'represent'
p1034
I1050
sS'all'
p1035
I1051
sS'consider'
p1036
I1052
sS'chinese'
p1037
I10
sS'ali'
p1038
I1054
sS'dollar'
p1039
I1055
sS'month'
p1040
I1056
sS'montu'
p1041
I371
sS'baath'
p1042
I1058
sS'seale'
p1043
I1059
sS'settlement'
p1044
I34
sS'religious'
p1045
I1061
sS'monty'
p1046
I1062
sS'catastrophe'
p1047
I1063
sS'diplomacy'
p1048
I1064
sS'thursday'
p1049
I1065
sS'to'
p1050
I1066
sS'program'
p1051
I1067
sS'those'
p1052
I1068
sS'alberto'
p1053
I85
sS'case'
p1054
I890
sS'khmer'
p1055
I1071
sS'woman'
p1056
I1072
sS'starzl'
p1057
I113
sS'song'
p1058
I1074
sS'very'
p1059
I920
sS'screwdriver'
p1060
I1076
sS'mph'
p1061
I1077
sS'nuclear-powered'
p1062
I1078
sS'scout'
p1063
I1079
sS'worst'
p1064
I1080
sS'decide'
p1065
I1081
sS'fall'
p1066
I1082
sS'labor'
p1067
I1860
sS'ticket'
p1068
I1083
sS'amtrak'
p1069
I1837
sS'`'
p1070
I1084
sS'neurological'
p1071
I1085
sS'heaven'
p1072
I1086
sS'--'
p1073
I1087
sS'large'
p1074
I1088
sS'dinosaur'
p1075
I1089
sS'small'
p1076
I1090
sS'disused'
p1077
I1091
sS'ten'
p1078
I1092
sS'haas'
p1079
I1093
sS'burger'
p1080
I1094
sS'burnish'
p1081
I232
sS'nbc'
p1082
I1096
sS'investment'
p1083
I1097
sS'ribbon'
p1084
I1098
sS'what'
p1085
I1099
sS'defence'
p1086
I1100
sS'abe'
p1087
I1101
sS'richard'
p1088
I1102
sS'sun'
p1089
I1103
sS'sum'
p1090
I1104
sS'suu'
p1091
I1105
sS'version'
p1092
I1106
sS'abu'
p1093
I1107
sS'public'
p1094
I1108
sS'movement'
p1095
I1109
sS'full'
p1096
I1110
sS'saperstein'
p1097
I1111
sS'christa'
p1098
I1112
sS'excess'
p1099
I1113
sS'strong'
p1100
I1114
sS'search'
p1101
I1115
sS'naval'
p1102
I1116
sS'prion'
p1103
I1119
sS'experience'
p1104
I1120
sS'prior'
p1105
I1121
sS'heroin'
p1106
I1122
sS'advertising'
p1107
I1123
sS'social'
p1108
I1124
sS'action'
p1109
I1125
sS'cataract'
p1110
I1127
sS'vig'
p1111
I1128
sS'family'
p1112
I1129
sS'africa'
p1113
I1130
sS'thatcher'
p1114
I1131
sS'ask'
p1115
I1243
sS'muslim'
p1116
I564
sS'rican'
p1117
I1133
sS'establish'
p1118
I427
sS'intensive'
p1119
I1561
sS'eye'
p1120
I1136
sS'injure'
p1121
I1137
sS'revelation'
p1122
I1138
sS'destination'
p1123
I1139
sS'two'
p1124
I1140
sS'cannabis'
p1125
I1557
sS'more'
p1126
I1142
sS'israel'
p1127
I1143
sS'diamond'
p1128
I1144
sS'company'
p1129
I1145
sS'floyd'
p1130
I1146
sS'town'
p1131
I1147
sS'none'
p1132
I1148
sS'include'
p1133
I1562
sS'science'
p1134
I1150
sS'equation'
p1135
I1151
sS'remain'
p1136
I1152
sS'nine'
p1137
I1153
sS'morgan'
p1138
I1154
sS'learn'
p1139
I1155
sS'abandon'
p1140
I1156
sS'dec'
p1141
I1157
sS'nino'
p1142
I1158
sS'history'
p1143
I1159
sS'orlean'
p1144
I1160
sS'share'
p1145
I1161
sS'diageo'
p1146
I1162
sS'collision'
p1147
I1163
sS'shsehf'
p1148
I1165
sS'exclude'
p1149
I1166
sS'robinson'
p1150
I1167
sS'species'
p1151
I1168
sS'biography'
p1152
I1169
sS'condemn'
p1153
I1170
sS'huge'
p1154
I631
sS'court'
p1155
I1172
sS'goal'
p1156
I1173
sS'galiee'
p1157
I1174
sS'hugo'
p1158
I1175
sS'owner'
p1159
I1741
sS'occasionally'
p1160
I1176
sS'reject'
p1161
I1177
sS'creature'
p1162
I1178
sS'plant'
p1163
I1179
sS'seoul'
p1164
I1180
sS'plane'
p1165
I1181
sS'fe'
p1166
I833
sS'invasion'
p1167
I1183
sS'a'
p1168
I1184
sS'aids-related'
p1169
I1185
sS'doctor'
p1170
I1186
sS'supervision'
p1171
I1187
sS'shore'
p1172
I1188
sS'sect'
p1173
I1189
sS'media'
p1174
I907
sS'ge-welch'
p1175
I1191
sS'help'
p1176
I1192
sS'radiation'
p1177
I1890
sS'mission'
p1178
I821
sS'trade'
p1179
I1195
sS'through'
p1180
I1196
sS'assad'
p1181
I1566
sS'suffer'
p1182
I1198
sS'its'
p1183
I1199
sS'style'
p1184
I1200
sS'pct'
p1185
I1201
sS'actually'
p1186
I1202
sS'late'
p1187
I1203
sS'resort'
p1188
I1204
sS'might'
p1189
I1205
sS'good'
p1190
I1206
sS'return'
p1191
I1207
sS'ceo'
p1192
I1208
sS'compound'
p1193
I1209
sS'oxford'
p1194
I1210
sS'association'
p1195
I1211
sS'frigate'
p1196
I1212
sS'-lsb-'
p1197
I1213
sS'ifc'
p1198
I1214
sS'found'
p1199
I1215
sS'heavy'
p1200
I1216
sS'taft'
p1201
I1217
sS'england'
p1202
I1218
sS'weight'
p1203
I1219
sS'house'
p1204
I1220
sS'energy'
p1205
I1221
sS'idea'
p1206
I1222
sS'slave'
p1207
I1118
sS'operation'
p1208
I1224
sS'event'
p1209
I1366
sS'alcohol'
p1210
I1226
sS'robert'
p1211
I1227
sS'since'
p1212
I1228
sS'garvey'
p1213
I1229
sS'publish'
p1214
I1230
sS'research'
p1215
I1231
sS'hill'
p1216
I1232
sS'issue'
p1217
I1233
sS'benjamin'
p1218
I1234
sS'belief'
p1219
I1235
sS'lawrence'
p1220
I1236
sS'1920s'
p1221
I1237
sS'friday'
p1222
I1238
sS'difficulty'
p1223
I1239
sS'qualify'
p1224
I1240
sS'base'
p1225
I1241
sS'brightest'
p1226
I1242
sS'put'
p1227
I1132
sS'hale-bopp'
p1228
I1244
sS'revolutionary'
p1229
I1245
sS'launch'
p1230
I1246
sS'so'
p1231
I1775
sS'american'
p1232
I1247
sS'syria'
p1233
I1248
sS'castle'
p1234
I1249
sS'weepie'
p1235
I1250
sS'major'
p1236
I1251
sS'fischer'
p1237
I1252
sS'number'
p1238
I1253
sS'hafez'
p1239
I1254
sS'mist'
p1240
I1255
sS'miss'
p1241
I1256
sS'story'
p1242
I1257
sS'joint-venture'
p1243
I1258
sS'jet'
p1244
I1259
sS'revive'
p1245
I1260
sS'construct'
p1246
I1261
sS'paint'
p1247
I1262
sS'spock'
p1248
I1263
sS'founder'
p1249
I1053
sS'hundred'
p1250
I1264
sS'store'
p1251
I1265
sS'relationship'
p1252
I1266
sS'hotel'
p1253
I1267
sS'pari'
p1254
I1268
sS'part'
p1255
I1269
sS'center'
p1256
I1270
sS'king'
p1257
I1271
sS'kind'
p1258
I1272
sS'b'
p1259
I1273
sS'mahal'
p1260
I1274
sS'zachary'
p1261
I1275
sS'colin'
p1262
I549
sS'jurisdiction'
p1263
I1277
sS'greg'
p1264
I1278
sS'architect'
p1265
I1279
sS'toward'
p1266
I1280
sS'declare'
p1267
I1281
sS'cleaner'
p1268
I1282
sS'techno-religious'
p1269
I1283
sS'garfield'
p1270
I1284
sS'gala'
p1271
I1285
sS'ambitious'
p1272
I500
sS'sell'
p1273
I1286
sS'mountain'
p1274
I1287
sS'wilson'
p1275
I1288
sS'u.s'
p1276
I1289
sS'dancing'
p1277
I1290
sS'scotland'
p1278
I1291
sS'severe'
p1279
I919
sS'also'
p1280
I1293
sS'chairman'
p1281
I1294
sS'play'
p1282
I1295
sS'towards'
p1283
I1296
sS'electric'
p1284
I1297
sS'reach'
p1285
I1299
sS'most'
p1286
I1300
sS'kilimanjaro'
p1287
I1301
sS'shareholder'
p1288
I1302
sS'plan'
p1289
I1303
sS'fluctuate'
p1290
I1304
sS'achievement'
p1291
I1305
sS'seize'
p1292
I1306
sS'clear'
p1293
I1307
sS'sometimes'
p1294
I1308
sS'km'
p1295
I1309
sS'traditional'
p1296
I1310
sS'chester'
p1297
I1311
sS'ku'
p1298
I1312
sS'ron'
p1299
I518
sS'nezavisimaya'
p1300
I1922
sS'organism'
p1301
I1314
sS'microsoft'
p1302
I1315
sS'particularly'
p1303
I1316
sS'phenomenon'
p1304
I1317
sS'exterminate'
p1305
I1318
sS'relation'
p1306
I1319
sS'find'
p1307
I1320
sS'occupation'
p1308
I1321
sS'surabaya'
p1309
I1322
sS'northern'
p1310
I1323
sS'boulder'
p1311
I1324
sS'shepherd'
p1312
I1325
sS'devastate'
p1313
I1326
sS'secular'
p1314
I1327
sS'fujus'
p1315
I1841
sS'famous'
p1316
I1328
sS'during'
p1317
I1329
sS'sill'
p1318
I1330
sS'merchandise'
p1319
I1331
sS'remove'
p1320
I1332
sS'1970-71'
p1321
I1333
sS'garcia'
p1322
I1334
sS'common'
p1323
I1335
sS'activity'
p1324
I1336
sS'insane'
p1325
I1337
sS'set'
p1326
I1338
sS'dump'
p1327
I1339
sS'prague'
p1328
I1340
sS'mantra'
p1329
I1341
sS'see'
p1330
I1342
sS'sea'
p1331
I1343
sS'close'
p1332
I1344
sS'bark'
p1333
I1345
sS'atla'
p1334
I1346
sS'probable'
p1335
I1347
sS'expert'
p1336
I1348
sS'movie'
p1337
I1349
sS'klux'
p1338
I1350
sS'durst'
p1339
I1352
sS'available'
p1340
I1353
sS'korea'
p1341
I1354
sS'recently'
p1342
I1355
sS'historical'
p1343
I1356
sS'piggy-backed'
p1344
I1357
sS'espouse'
p1345
I925
sS'conde'
p1346
I1359
sS'opposition'
p1347
I1360
sS'distinguish'
p1348
I1361
sS'league'
p1349
I1362
sS'last'
p1350
I1363
sS'restaurant'
p1351
I1364
sS'annual'
p1352
I1365
sS'foreign'
p1353
I1367
sS'long-term'
p1354
I1368
sS'approve'
p1355
I1369
sS'bott'
p1356
I1370
sS'point'
p1357
I1371
sS'community'
p1358
I1372
sS'likes'
p1359
I1373
sS'church'
p1360
I1374
sS'vessel'
p1361
I1375
sS'throughout'
p1362
I1376
sS'java'
p1363
I1377
sS'publishing'
p1364
I1378
sS'nader'
p1365
I1379
sS'create'
p1366
I1380
sS'political'
p1367
I1381
sS'micha'
p1368
I1382
sS'whom'
p1369
I1383
sS'lucrative'
p1370
I714
sS'ireland'
p1371
I1384
sS'threaten'
p1372
I1385
sS'meeting'
p1373
I1386
sS'empty'
p1374
I1387
sS'walter'
p1375
I1388
sS'firm'
p1376
I1389
sS'flight'
p1377
I1390
sS'pittsfield'
p1378
I1391
sS'fire'
p1379
I1392
sS'anthony'
p1380
I1393
sS'fund'
p1381
I1394
sS'representative'
p1382
I1395
sS'demand'
p1383
I1396
sS'pact'
p1384
I1397
sS'bill'
p1385
I1398
sS'kreb'
p1386
I1399
sS'berkman'
p1387
I36
sS'while'
p1388
I1401
sS'fun'
p1389
I1402
sS'fleet'
p1390
I1403
sS'mitchell'
p1391
I1404
sS'guide'
p1392
I1405
sS'pound'
p1393
I1406
sS'century'
p1394
I1407
sS'davidian'
p1395
I1408
sS'vow'
p1396
I1409
sS'triple'
p1397
I1410
sS'ushuaia'
p1398
I1411
sS'monroe'
p1399
I1412
sS'communal'
p1400
I1413
sS'grant'
p1401
I1414
sS'belong'
p1402
I1415
sS'anti-cancer'
p1403
I1416
sS'grand'
p1404
I1417
sS'neutron'
p1405
I171
sS'development'
p1406
I1419
sS'literature'
p1407
I1420
sS'biochemist'
p1408
I1421
sS'overseer'
p1409
I1601
sS'vargas'
p1410
I214
sS'lower'
p1411
I1424
sS'older'
p1412
I1426
sS'energy-efficient'
p1413
I1427
sS'morrow'
p1414
I1428
sS'person'
p1415
I1429
sS'ltd.'
p1416
I1430
sS'y'
p1417
I251
sS'organization'
p1418
I1432
sS'spend'
p1419
I1433
sS'doody'
p1420
I1434
sS'know'
p1421
I1941
sS'chore'
p1422
I1435
sS'retired'
p1423
I1298
sS'taiwan'
p1424
I1437
sS'profitable'
p1425
I1438
sS'cut'
p1426
I1439
sS'$'
p1427
I1440
sS'brand-new'
p1428
I1441
sS'location'
p1429
I1442
sS'sydney'
p1430
I1443
sS'huey'
p1431
I1444
sS'build'
p1432
I1445
sS'australia'
p1433
I1446
sS'march'
p1434
I1447
sS'emergency'
p1435
I1448
sS'big'
p1436
I1449
sS'kasdan'
p1437
I1005
sS'game'
p1438
I1451
sS'private'
p1439
I1612
sS'falcon'
p1440
I1453
sS'jacksonville'
p1441
I1454
sS'whitten'
p1442
I1455
sS'confront'
p1443
I1456
sS'glove'
p1444
I1457
sS'eer'
p1445
I1458
sS'collect'
p1446
I1459
sS'popular'
p1447
I1460
sS'disorder'
p1448
I1461
sS'premium'
p1449
I1462
sS'love'
p1450
I1463
sS'parade'
p1451
I457
sS'senate'
p1452
I1465
sS'spring'
p1453
I1466
sS'b.'
p1454
I1467
sS'creation'
p1455
I1468
sS'some'
p1456
I1469
sS'back'
p1457
I1470
sS'economic'
p1458
I1471
sS'scandal'
p1459
I1615
sS'pale'
p1460
I1473
sS'patterson'
p1461
I1474
sS'mummy'
p1462
I1475
sS'decision'
p1463
I1476
sS'audience'
p1464
I1477
sS'per'
p1465
I1478
sS'epic'
p1466
I540
sS'either'
p1467
I1480
sS'be'
p1468
I1481
sS'run'
p1469
I1482
sS'rum'
p1470
I1483
sS'fresco'
p1471
I1484
sS'bn'
p1472
I1485
sS'agreement'
p1473
I1486
sS'sante'
p1474
I573
sS'santa'
p1475
I1488
sS'by'
p1476
I1489
sS'range'
p1477
I1490
sS'offshoot'
p1478
I1491
sS'ahm'
p1479
I1492
sS'clinton'
p1480
I1493
sS'colorado'
p1481
I1494
sS'into'
p1482
I1495
sS'folsom'
p1483
I1496
sS'steven'
p1484
I1497
sS'nobel'
p1485
I1621
sS'coin'
p1486
I1499
sS'long'
p1487
I731
sS'u2'
p1488
I1501
sS'occupy'
p1489
I1502
sS'infected'
p1490
I1503
sS':'
p1491
I1504
sS'crips'
p1492
I1505
sS'manufacture'
p1493
I1506
sS'rogue'
p1494
I1507
sS'himself'
p1495
I1508
sS'jewish'
p1496
I1509
sS'specialty'
p1497
I1510
sS'atlantic'
p1498
I1511
sS'dues-paying'
p1499
I1512
sS'russian'
p1500
I1513
sS'-lrb-'
p1501
I1514
sS'line'
p1502
I1515
sS'apricot'
p1503
I1517
sS'up'
p1504
I1518
sS'planet'
p1505
I1519
sS'morocco'
p1506
I1520
sS'prosecutor'
p1507
I1521
sS'etc.'
p1508
I1522
sS'meriwether'
p1509
I1523
sS'bell'
p1510
I1928
sS'associated'
p1511
I1524
sS'expedition'
p1512
I1525
sS'influence'
p1513
I1526
sS'single'
p1514
I1527
sS'kidney'
p1515
I1528
sS'phantom'
p1516
I1529
sS'%'
p1517
I1530
sS'crip'
p1518
I1531
sS'pat'
p1519
I336
sS'kirk'
p1520
I930
sS'genome'
p1521
I1534
sS'manhattan'
p1522
I1535
sS'nice'
p1523
I1536
sS'gekko'
p1524
I1537
sS'ulyss'
p1525
I1538
sS'lens'
p1526
I739
sS'insect'
p1527
I1540
sS'restoration'
p1528
I1541
sS'ago'
p1529
I1542
sS'land'
p1530
I1543
sS'nast'
p1531
I1544
sS'vice'
p1532
I1545
sS'age'
p1533
I1546
sS'confirm'
p1534
I957
sS'nasa'
p1535
I1031
sS'far'
p1536
I1075
sS'fresh'
p1537
I1548
sS'menace'
p1538
I1549
sS'receive'
p1539
I1598
sS'once'
p1540
I1550
sS'qiao'
p1541
I1551
sS'fitch'
p1542
I1552
sS'steve'
p1543
I621
sS'ge'
p1544
I1554
sS'gang'
p1545
I1555
sS'go'
p1546
I1556
sS'vietnamese'
p1547
I1117
sS'shanghai'
p1548
I1558
sS'young'
p1549
I1559
sS'send'
p1550
I1560
sS'literary'
p1551
I1135
sS'fatal'
p1552
I1149
sS'confirmation'
p1553
I1164
sS'accuse'
p1554
I1564
sS'yongbyun'
p1555
I1565
sS'g.'
p1556
I1197
sS'harlow'
p1557
I1567
sS'sen.'
p1558
I1568
sS'incoherent'
p1559
I1569
sS'marry'
p1560
I1570
sS'michael'
p1561
I1571
sS'ryan'
p1562
I1572
sS'try'
p1563
I1573
sS'race'
p1564
I1574
sS'sunnus'
p1565
I1575
sS'challenge'
p1566
I1640
sS'smaller'
p1567
I1577
sS'mid-30s'
p1568
I1578
sS'carlo'
p1569
I1579
sS'power'
p1570
I1580
sS'colonel'
p1571
I1581
sS'cell'
p1572
I1582
sS'indian'
p1573
I1583
sS';'
p1574
I1585
sS'caruso'
p1575
I1586
sS'body'
p1576
I1587
sS'degree'
p1577
I1588
sS'n.c'
p1578
I1589
sS'giant'
p1579
I1590
sS'jointly'
p1580
I1591
sS'sino'
p1581
I1592
sS'punk-rock'
p1582
I1593
sS'sink'
p1583
I1594
sS'n.y'
p1584
I1595
sS'great'
p1585
I1596
sS'engage'
p1586
I1597
sS'technical'
p1587
I1400
sS'larger'
p1588
I1599
sS'scientology'
p1589
I1600
sS'defeat'
p1590
I1422
sS'implement'
p1591
I1602
sS'gene'
p1592
I1603
sS'honor'
p1593
I1604
sS'apple'
p1594
I1605
sS'clark'
p1595
I1606
sS'heart'
p1596
I1607
sS'egypt'
p1597
I1608
sS'win'
p1598
I1609
sS'limp'
p1599
I1610
sS'manage'
p1600
I1611
sS'clout'
p1601
I1452
sS'aboard'
p1602
I1613
sS'motor'
p1603
I1614
sS'apply'
p1604
I1472
sS'singing'
p1605
I1616
sS'use'
p1606
I1617
sS'from'
p1607
I1618
sS'&'
p1608
I1619
sS'nagoya'
p1609
I1620
sS'next'
p1610
I1498
sS'process'
p1611
I1644
sS'doubt'
p1612
I1623
sS'uss'
p1613
I1624
sS'themselves'
p1614
I1625
sS'jonathan'
p1615
I1516
sS'parliament'
p1616
I1627
sS'formally'
p1617
I1628
sS'comparison'
p1618
I1629
sS'musician'
p1619
I1630
sS'cooperate'
p1620
I1631
sS'israelis'
p1621
I1633
sS'shostakovich'
p1622
I1634
sS'mitsubishi'
p1623
I1635
sS'harvest'
p1624
I1636
sS'mitsubishus'
p1625
I1637
sS'account'
p1626
I1638
sS'this'
p1627
I1639
sS'lapse'
p1628
I1576
sS'freedom'
p1629
I1980
sS'meet'
p1630
I1642
sS'control'
p1631
I1643
sS'calculation'
p1632
I1622
sS'high'
p1633
I1645
sS'application'
p1634
I1533
sS'hit'
p1635
I1646
sS'voice'
p1636
I346
sS'contempt'
p1637
I1425
sS'united'
p1638
I1648
sS'syndrome'
p1639
I1649
sS'sit'
p1640
I1650
sS'six'
p1641
I1651
sS'inman'
p1642
I1652
sS'located'
p1643
I1653
sS'lamp'
p1644
I1654
sS'taj'
p1645
I1647
sS'ferdinand'
p1646
I1656
sS'nidal'
p1647
I1657
sS'stand'
p1648
I1658
sS'fare'
p1649
I1659
sS'harding'
p1650
I1660
sS'farm'
p1651
I1661
sS'permanent'
p1652
I1867
sS'ethnic'
p1653
I1662
sS'klan'
p1654
I1663
sS'hawk'
p1655
I1664
sS'bink'
p1656
I1665
sS'light'
p1657
I1666
sS'big-eared'
p1658
I1667
sS'chapman'
p1659
I1668
sS'processor'
p1660
I1669
sS'chief'
p1661
I1670
sS'spain'
p1662
I1874
sS'addiction'
p1663
I1671
sS'horne'
p1664
I1672
sS'producer'
p1665
I1673
sS'move'
p1666
I1674
sS'tungsten'
p1667
I1675
sS'own'
p1668
I1984
sS'costume'
p1669
I1677
sS'warren'
p1670
I1678
sS'chemical'
p1671
I1679
sS'bridget'
p1672
I1680
sS'la'
p1673
I1681
sS'lo'
p1674
I1682
sS'anti-nuclear'
p1675
I1683
sS'li'
p1676
I1684
sS'willing'
p1677
I166
sS'choose'
p1678
I1686
sS'holiday'
p1679
I1688
sS'forest'
p1680
I1655
sS'crash'
p1681
I1689
sS'auto'
p1682
I1690
sS'material'
p1683
I1691
sS'dock'
p1684
I1692
sS'front'
p1685
I1693
sS'republican'
p1686
I1694
sS'day'
p1687
I1695
sS'presidential'
p1688
I1696
sS'february'
p1689
I1697
sS'comedy'
p1690
I1698
sS'l.'
p1691
I1699
sS'university'
p1692
I1700
sS'decommission'
p1693
I1701
sS'morris'
p1694
I1702
sS'gazeta'
p1695
I1991
sS'stock'
p1696
I1704
sS'myelin'
p1697
I1705
sS'globe'
p1698
I1706
sS'product'
p1699
I1707
sS'society'
p1700
I1708
sS'gungan'
p1701
I1709
sS'morton'
p1702
I1710
sS'out'
p1703
I1711
sS"'"
p1704
I1712
sS'rev'
p1705
I1713
sS'floppy-eared'
p1706
I1714
sS'calif'
p1707
I23
sS'red'
p1708
I1716
sS'disclose'
p1709
I1717
sS'harold'
p1710
I1718
sS'undated'
p1711
I1719
sS'frank'
p1712
I1720
sS'mashal'
p1713
I1721
sS'york'
p1714
I1723
sS'advisor'
p1715
I1724
sS'franz'
p1716
I1725
sS'yard'
p1717
I1726
sS'1980'
p1718
I1996
sS'could'
p1719
I1728
sS'horace'
p1720
I1729
sS'keep'
p1721
I114
sS'aarp'
p1722
I1998
sS'al-banna'
p1723
I1732
sS'backward-looking'
p1724
I1734
sS'scene'
p1725
I1735
sS'jesus'
p1726
I1736
sS'cholame'
p1727
I1737
sS'muhammad'
p1728
I167
sS'ybarra'
p1729
I1739
sS'calderon'
p1730
I1740
sS'effervescent'
p1731
I1351
sS'appleseed'
p1732
I1742
sS'festival'
p1733
I1743
sS'unknown'
p1734
I1744
sS'durable'
p1735
I1745
sS'system'
p1736
I1746
sS'attack'
p1737
I1747
sS'palestine'
p1738
I1748
sS'man'
p1739
I1749
sS'hard-nosed'
p1740
I1750
sS'cabin'
p1741
I1751
sS'accompany'
p1742
I1752
sS'lot'
p1743
I1753
sS'quarry'
p1744
I1754
sS'barnstorm'
p1745
I1755
sS'environmental'
p1746
I1756
sS'july'
p1747
I1757
sS'herself'
p1748
I1758
sS'marbella'
p1749
I1759
sS'bid'
p1750
I1450
sS'shampoo'
p1751
I1760
sS'gehry'
p1752
I1761
sS'150m'
p1753
I1762
sS'probe'
p1754
I1563
sS'amerindo'
p1755
I1763
sS'have'
p1756
I1764
sS'sen'
p1757
I1765
sS'need'
p1758
I1766
sS'apparently'
p1759
I1767
sS'11th'
p1760
I1584
sS'shoshone'
p1761
I1769
sS'amphibious'
p1762
I1770
sS'florio'
p1763
I1771
sS'able'
p1764
I1772
sS'sinatra'
p1765
I1773
sS'which'
p1766
I1774
sS'jail'
p1767
I61
sS'korean'
p1768
I1776
sS'sirius'
p1769
I1777
sS'soar'
p1770
I1778
sS'worldwide'
p1771
I1779
sS'clash'
p1772
I1780
sS'who'
p1773
I1781
sS'useful'
p1774
I1436
sS'vengeance'
p1775
I1782
sS'eight'
p1776
I1783
sS'dmitri'
p1777
I1784
sS'gallery'
p1778
I463
sS'so-called'
p1779
I1786
sS'rostropovich'
p1780
I1787
sS'spaceflight'
p1781
I1788
sS'gather'
p1782
I1789
sS'request'
p1783
I1790
sS'disease'
p1784
I1791
sS'ramirez'
p1785
I918
sS'capita'
p1786
I1793
sS'peacekeeper'
p1787
I1794
sS'businessman'
p1788
I1795
sS'fact'
p1789
I1796
sS'12m'
p1790
I1797
sS'manchester'
p1791
I1798
sS'industrialist'
p1792
I1799
sS'rouge'
p1793
I1800
sS'utter'
p1794
I1801
sS'texa'
p1795
I1802
sS'supporter'
p1796
I1803
sS'staff'
p1797
I1804
sS'candidacy'
p1798
I1805
sS'winner'
p1799
I1806
sS'jar'
p1800
I1807
sS'should'
p1801
I1808
sS'jan'
p1802
I1809
sS'earner'
p1803
I1810
sS'communist'
p1804
I1811
sS'local'
p1805
I1812
sS'hope'
p1806
I1813
sS'okla'
p1807
I1814
sS'prosecute'
p1808
I1815
sS'insight'
p1809
I1816
sS'perigee'
p1810
I1817
sS'cuba'
p1811
I1818
sS'czechoslovakia'
p1812
I1819
sS'background'
p1813
I408
sS'bear'
p1814
I638
sS'wiggle'
p1815
I647
sS'probably'
p1816
I752
sS'inhofe'
p1817
I1824
sS'nutmeg'
p1818
I1825
sS'she'
p1819
I1826
sS'contain'
p1820
I1827
sS'ohio'
p1821
I715
sS'half-million'
p1822
I1829
sS'view'
p1823
I1830
sS'europe'
p1824
I1831
sS'national'
p1825
I1832
sS'taiwanese'
p1826
I1833
sS'we'
p1827
I1834
sS'intensity'
p1828
I1835
sS'computer'
p1829
I1836
sS'jurassic'
p1830
I790
sS'whitmore'
p1831
I797
sS'posse'
p1832
I803
sS'ralph'
p1833
I1840
sS'punch-drunk'
p1834
I405
sS'tend'
p1835
I1842
sS'mcauliffe'
p1836
I1843
sS'state'
p1837
I1844
sS'bundesbank'
p1838
I1845
sS'sole'
p1839
I1358
sS'deliver'
p1840
I1846
sS'efficiency'
p1841
I1847
sS'job'
p1842
I1848
sS'key'
p1843
I1849
sS'ilich'
p1844
I1850
sS'lawsuit'
p1845
I1851
sS'capriatus'
p1846
I1852
sS'drug'
p1847
I1853
sS'april'
p1848
I653
sS'admit'
p1849
I1855
sS'jersey'
p1850
I1856
sS'wall'
p1851
I1857
sS'cd'
p1852
I1858
sS'qintex'
p1853
I1859
sS'oakland'
p1854
I956
sS'nomination'
p1855
I1861
sS'better-received'
p1856
I1862
sS'addition'
p1857
I1863
sS'cent'
p1858
I1864
sS'rhode'
p1859
I1865
sS'genetic'
p1860
I1866
sS'tyler'
p1861
I1685
sS'treat'
p1862
I1868
sS'louisiana'
p1863
I1869
sS'both'
p1864
I1870
sS'overwhelmingly'
p1865
I1871
sS'policy'
p1866
I1872
sS'hamburg'
p1867
I1873
sS'consecutive'
p1868
I1823
sS'present'
p1869
I857
sS'novel'
p1870
I489
sS'unlike'
p1871
I1876
sS'britain'
p1872
I1877
sS'value'
p1873
I1878
sS'will'
p1874
I1879
sS'supply'
p1875
I1880
sS'likable'
p1876
I1881
sS'almost'
p1877
I1882
sS'blood'
p1878
I1182
sS'coating'
p1879
I1883
sS'sheath'
p1880
I1884
sS'sarcoma'
p1881
I1885
sS'nine-month'
p1882
I1886
sS'capture'
p1883
I1887
sS'spacecraft'
p1884
I1057
sS'terrorist'
p1885
I387
sS'drug-related'
p1886
I1889
sS'administration'
p1887
I1193
sS'cross'
p1888
I1891
sS'unite'
p1889
I1892
sS'member'
p1890
I1893
sS'northwest'
p1891
I1894
sS'incumbent'
p1892
I1895
sS'largest'
p1893
I1896
sS'shuttle'
p1894
I1897
sS'party'
p1895
I1898
sS'powell'
p1896
I1899
sS'practice'
p1897
I1900
sS'practitioner'
p1898
I1223
sS'absorb'
p1899
I1902
sS'outcast'
p1900
I1903
sS'polytheistic'
p1901
I1904
sS'student'
p1902
I1905
sS'suborbital'
p1903
I1906
sS'frequently'
p1904
I1907
sS'edmond'
p1905
I1908
sS'mosaic'
p1906
I1909
sS'kimberley'
p1907
I1910
sS'off'
p1908
I1911
sS'fascinate'
p1909
I633
sS'i'
p1910
I1913
sS'builder'
p1911
I1914
sS'indonesia'
p1912
I1915
sS'well'
p1913
I1916
sS'col'
p1914
I1917
sS'riff'
p1915
I1918
sS'command'
p1916
I1919
sS'english'
p1917
I1920
sS'position'
p1918
I1921
sS'latest'
p1919
I1313
sS'newest'
p1920
I1923
sS'heavily'
p1921
I1924
sS'executive'
p1922
I1925
sS'hubbard'
p1923
I1888
sS'graduate'
p1924
I1029
sS'jackal'
p1925
I1926
sS'panther'
p1926
I1927
sS'jeff'
p1927
I1722
sS'sky'
p1928
I1929
sS'<num>'
p1929
I1930
sS'arrest'
p1930
I1931
sS'other'
p1931
I2038
sS'combine'
p1932
I1933
sS'citizen'
p1933
I1934
sS'adm'
p1934
I1935
sS'match'
p1935
I1936
sS'magnify'
p1936
I1937
sS'government'
p1937
I1938
sS'historic'
p1938
I1939
sS'five'
p1939
I1940
sS'proton'
p1940
I1632
sS'fatt'
p1941
I1942
sS'press'
p1942
I1943
sS'cassinus'
p1943
I1944
sS'loss'
p1944
I1945
sS'gastonia'
p1945
I1946
sS'like'
p1946
I1947
sS'success'
p1947
I1948
sS'safest'
p1948
I271
sS'future'
p1949
I1950
sS'clown'
p1950
I1951
sS'lose'
p1951
I1952
sS'become'
p1952
I1953
sS'page'
p1953
I1954
sS'poor'
p1954
I1955
sS'because'
p1955
I1956
sS'village'
p1956
I1957
sS'authority'
p1957
I1958
sS'growth'
p1958
I1959
sS'export'
p1959
I1960
sS'cleveland'
p1960
I1961
sS'home'
p1961
I1962
sS'peter'
p1962
I1963
sS'rohm'
p1963
I1964
sS'lead'
p1964
I1965
sS'guerriere'
p1965
I1966
sS'hurricane'
p1966
I1967
sS'e-mail'
p1967
I1968
sS'naboo'
p1968
I1969
sS'leader'
p1969
I1970
sS'?'
p1970
I1971
sS'locate'
p1971
I1972
sS'acronym'
p1972
I1973
sS'monetary'
p1973
I1974
sS'pressure'
p1974
I1975
sS'although'
p1975
I1976
sS'stage'
p1976
I1626
sS'about'
p1977
I1978
sS'rare'
p1978
I1979
sS'face'
p1979
I1792
sS'universe'
p1980
I1641
sS'certainty'
p1981
I1981
sS'surge'
p1982
I1982
sS'dub'
p1983
I1983
sS'alliance'
p1984
I1676
sS'glenn'
p1985
I1985
sS'previously'
p1986
I1986
sS'washington'
p1987
I1987
sS'chronic'
p1988
I1988
sS'guard'
p1989
I1989
sS'weather'
p1990
I1990
sS'h.'
p1991
I1703
sS'confession'
p1992
I1992
sS'managing'
p1993
I1993
sS'jubilee'
p1994
I1994
sS'dockside'
p1995
I1995
sS'waco'
p1996
I1727
sS'commission'
p1997
I1997
sS'sabri'
p1998
I1731
sS'museum'
p1999
I1999
sS'airline'
p2000
I2000
sS'biggest'
p2001
I2001
sS'venezuelan'
p2002
I2002
sS'function'
p2003
I2003
sS'buy'
p2004
I2004
sS'north'
p2005
I2005
sS'interest'
p2006
I2006
sS'insurer'
p2007
I2007
sS'coke'
p2008
I909
sS'but'
p2009
I2009
sS'ironside'
p2010
I2010
sS'apollo'
p2011
I524
sS'memphis'
p2012
I2012
sS'bug'
p2013
I2013
sS'he'
p2014
I2014
sS'jaffa'
p2015
I2015
sS'asprey'
p2016
I2016
sS'wish'
p2017
I2017
sS'official'
p2018
I2018
sS'smooth'
p2019
I2019
sS'record'
p2020
I2020
sS'limit'
p2021
I2021
sS'ruling'
p2022
I2022
sS'cello'
p2023
I2023
sS'problem'
p2024
I2024
sS'piece'
p2025
I2025
sS'farrar'
p2026
I2026
sS'recognize'
p2027
I2027
sS'universal'
p2028
I2028
sS'contribute'
p2029
I2029
sS'hauter'
p2030
I2030
sS'pit'
p2031
I2031
sS'inc'
p2032
I2032
sS'diego'
p2033
I2033
sS'diplomat'
p2034
I2034
sS'tourette'
p2035
I2035
sS'percent'
p2036
I2036
sS'riaa'
p2037
I2037
sS'book'
p2038
I1932
sS'branch'
p2039
I2039
sS'junk'
p2040
I2040
sS'francisco'
p2041
I2041
sS'star'
p2042
I2042
sS'june'
p2043
I2043
sS'margaret'
p2044
I2044
sS'veil'
p2045
I2045
sS'15-minute'
p2046
I2046
sS'4m'
p2047
I2047
sS'liver'
p2048
I2048
s.