(lp0
(dp1
S'text'
p2
(lp3
I379
aI236
aI940
aI1585
aI1184
aI1169
aI970
aI2044
aI1131
aI1489
aI1175
aI1559
aI1514
aI2026
aI152
aI297
aI1619
aI324
aI487
asS'id'
p4
I1
sa(dp5
g2
(lp6
I172
aI1621
aI22
aI1481
aI14
aI1440
aI1930
aI330
asg4
I2
sa(dp7
g2
(lp8
I590
aI505
aI1043
aI1879
aI1846
aI187
aI1614
aI426
aI891
aI652
aI330
asg4
I3
sa(dp9
g2
(lp10
I1363
aI698
aI379
aI1145
aI1433
aI1406
aI1797
aI969
aI1123
aI330
asg4
I4
sa(dp11
g2
(lp12
I103
aI1963
aI1672
aI152
aI1517
aI1993
aI915
aI152
aI763
aI1617
aI42
aI902
aI77
aI1439
aI550
aI760
aI313
aI1847
aI1066
aI379
aI1371
aI829
aI438
aI550
aI354
aI1291
aI1481
aI1424
aI754
aI1020
aI1635
aI505
aI1179
aI354
aI1480
aI914
aI977
aI147
aI330
asg4
I5
sa(dp13
g2
(lp14
I1020
aI379
aI508
aI103
aI1738
aI1790
aI1184
aI95
aI1669
aI1066
aI882
aI2014
aI1066
aI2020
aI2014
aI1138
aI330
asg4
I6
sa(dp15
g2
(lp16
I1859
aI1446
aI1430
aI760
aI1859
aI1430
aI514
aI1764
aI312
aI970
aI1978
aI1440
aI1930
aI509
aI1514
aI593
aI487
aI152
aI307
aI1066
aI1140
aI479
aI1020
aI593
aI437
aI1389
aI330
asg4
I7
sa(dp17
g2
(lp18
I105
aI705
aI452
aI1764
aI1184
aI1085
aI1461
aI1941
aI1018
aI2035
aI505
aI1649
aI330
asg4
I8
sa(dp19
g2
(lp20
I354
aI156
aI152
aI1930
aI522
aI270
aI970
aI750
aI152
aI1958
aI719
aI1184
aI1812
aI1844
aI970
aI1448
aI760
aI1409
aI1066
aI820
aI379
aI1636
aI354
aI33
aI358
aI350
aI175
aI448
aI204
aI337
aI152
aI1905
aI760
aI78
aI74
aI330
asg4
I9
sa(dp21
g2
(lp22
I100
aI1961
aI152
aI1781
aI354
aI2043
aI1930
aI1570
aI138
aI590
aI1496
aI152
aI1961
aI505
aI92
aI1228
aI1826
aI529
aI541
aI354
aI1930
aI330
asg4
I10
sa(dp23
g2
(lp24
I161
aI1764
aI1481
aI17
aI1489
aI1577
aI418
aI354
aI1930
aI152
aI1184
aI698
aI497
aI379
aI597
aI1433
aI1406
aI2047
aI969
aI352
aI330
asg4
I11
sa(dp25
g2
(lp26
I1586
aI152
aI1930
aI152
aI1215
aI1055
aI354
aI1682
aI588
aI354
aI1930
aI1489
aI765
aI966
aI426
aI1440
aI1930
aI1184
aI1695
aI152
aI760
aI2014
aI1152
aI1199
aI1358
aI1741
aI330
asg4
I12
sa(dp27
g2
(lp28
I50
aI707
aI939
aI1675
aI155
aI760
aI1764
aI1907
aI1481
aI1564
aI970
aI1339
aI1675
aI969
aI224
aI584
aI330
asg4
I13
sa(dp29
g2
(lp30
I1018
aI350
aI722
aI1711
aI152
aI497
aI350
aI735
aI354
aI1930
aI379
aI888
aI1666
aI859
aI278
aI678
aI1562
aI769
aI31
aI1482
aI330
asg4
I14
sa(dp31
g2
(lp32
I1140
aI1834
aI1421
aI152
aI908
aI1399
aI760
aI1908
aI1252
aI152
aI1591
aI1609
aI379
aI1930
aI1621
aI190
aI22
aI426
aI97
aI748
aI1728
aI718
aI379
aI1115
aI426
aI1184
aI1416
aI1853
aI330
asg4
I15
sa(dp33
g2
(lp34
I562
aI354
aI379
aI1886
aI1333
aI575
aI970
aI301
aI760
aI379
aI329
aI596
aI301
aI699
aI491
aI760
aI354
aI284
aI505
aI1038
aI575
aI1243
aI426
aI1782
aI354
aI1170
aI161
aI1066
aI929
aI426
aI725
aI243
aI1588
aI220
aI760
aI764
aI330
asg4
I16
sa(dp35
g2
(lp36
I1437
aI127
aI1684
aI1854
aI1556
aI969
aI1184
aI596
aI1688
aI1064
aI491
aI856
aI1329
aI379
aI1466
aI1743
aI749
aI330
asg4
I17
sa(dp37
g2
(lp38
I599
aI1066
aI116
aI379
aI1171
aI710
aI354
aI1802
aI152
aI1834
aI152
aI1489
aI1930
aI582
aI613
aI970
aI1184
aI1661
aI1209
aI1827
aI52
aI1970
aI1730
aI1738
aI760
aI934
aI1930
aI419
aI152
aI1299
aI1184
aI157
aI330
asg4
I18
sa(dp39
g2
(lp40
I989
aI1481
aI1184
aI596
aI282
aI491
aI440
aI1618
aI379
aI1980
aI1930
aI1057
aI748
aI733
aI751
aI895
aI969
aI1184
aI2046
aI1906
aI1390
aI354
aI1930
aI152
aI360
aI2014
aI379
aI725
aI1247
aI354
aI702
aI330
asg4
I19
sa(dp41
g2
(lp42
I161
aI642
aI125
aI379
aI1088
aI1089
aI748
aI348
aI161
aI1481
aI1318
aI1930
aI711
aI698
aI1542
aI1489
aI1184
aI1744
aI1756
aI1063
aI152
aI763
aI1227
aI1069
aI970
aI379
aI1700
aI970
aI1494
aI1020
aI1324
aI330
asg4
I20
sa(dp43
g2
(lp44
I2014
aI1481
aI379
aI725
aI180
aI1367
aI886
aI43
aI1066
aI589
aI1180
aI1228
aI379
aI1140
aI316
aI137
aI365
aI1319
aI354
aI1930
aI330
asg4
I21
sa(dp45
g2
(lp46
I50
aI763
aI24
aI1213
aI1930
aI653
aI1768
aI350
aI1813
aI887
aI1834
aI127
aI1102
aI449
aI152
aI9
aI1939
aI1930
aI589
aI49
aI1821
aI379
aI465
aI426
aI379
aI1541
aI970
aI1592
aI243
aI1834
aI502
aI152
aI77
aI768
aI1194
aI1618
aI1184
aI919
aI614
aI330
asg4
I22
sa(dp47
g2
(lp48
I760
aI354
aI379
aI1862
aI2009
aI662
aI1734
aI497
aI1184
aI1749
aI1463
aI1184
aI1072
aI152
aI592
aI1334
aI760
aI47
aI1514
aI165
aI354
aI357
aI487
aI1572
aI1573
aI1066
aI1132
aI379
aI791
aI1470
aI1495
aI379
aI1006
aI1250
aI330
asg4
I23
sa(dp49
g2
(lp50
I422
aI760
aI1915
aI1830
aI379
aI304
aI920
aI1040
aI1956
aI161
aI1161
aI1335
aI2024
aI354
aI459
aI1003
aI182
aI877
aI815
aI66
aI1489
aI410
aI316
aI152
aI2014
aI763
aI354
aI1322
aI152
aI400
aI1377
aI1363
aI413
aI330
asg4
I24
sa(dp51
g2
(lp52
I379
aI1079
aI1008
aI1167
aI152
aI1184
aI20
aI243
aI838
aI383
aI1020
aI876
aI150
aI379
aI468
aI152
aI1481
aI379
aI1749
aI1066
aI1792
aI379
aI627
aI1975
aI970
aI160
aI379
aI863
aI192
aI330
asg4
I25
sa(dp53
g2
(lp54
I366
aI1879
aI1481
aI469
aI1280
aI1777
aI152
aI379
aI1242
aI2042
aI354
aI379
aI1086
aI152
aI125
aI350
aI542
aI1834
aI475
aI1746
aI330
asg4
I26
sa(dp55
g2
(lp56
I349
aI195
aI127
aI1087
aI1538
aI626
aI1414
aI152
aI603
aI1467
aI237
aI152
aI62
aI1039
aI1284
aI152
aI1234
aI928
aI152
aI1539
aI670
aI152
aI1539
aI873
aI1217
aI760
aI1678
aI1197
aI1660
aI1087
aI1481
aI638
aI354
aI715
aI330
asg4
I27
sa(dp57
g2
(lp58
I56
aI152
aI1720
aI1087
aI1720
aI1773
aI152
aI748
aI1481
aI152
aI1781
aI24
aI413
aI1481
aI1604
aI1003
aI379
aI1879
aI827
aI89
aI1020
aI379
aI948
aI1232
aI1144
aI1994
aI1285
aI330
asg4
I28
sa(dp59
g2
(lp60
I1551
aI763
aI91
aI152
aI379
aI1896
aI737
aI354
aI252
aI152
aI1764
aI1596
aI1526
aI969
aI379
aI939
aI330
asg4
I29
sa(dp61
g2
(lp62
I390
aI1301
aI152
aI1130
aI505
aI2011
aI1287
aI152
aI1152
aI2045
aI354
aI717
aI1255
aI1018
aI1834
aI794
aI1296
aI350
aI1711
aI970
aI899
aI330
asg4
I30
sa(dp63
g2
(lp64
I379
aI2005
aI1776
aI1764
aI866
aI748
aI379
aI1140
aI1834
aI889
aI243
aI730
aI970
aI1383
aI1481
aI926
aI497
aI161
aI879
aI851
aI453
aI243
aI1481
aI969
aI1184
aI607
aI821
aI760
aI161
aI1230
aI1184
aI1084
aI1992
aI1712
aI1618
aI103
aI681
aI330
asg4
I31
sa(dp65
g2
(lp66
I1783
aI127
aI1481
aI638
aI354
aI935
aI1504
aI736
aI1987
aI152
aI247
aI776
aI152
aI62
aI802
aI152
aI62
aI1412
aI152
aI1539
aI727
aI928
aI152
aI219
aI1685
aI152
aI1275
aI1009
aI760
aI786
aI1288
aI330
asg4
I32
sa(dp67
g2
(lp68
I2014
aI763
aI379
aI586
aI760
aI1989
aI1764
aI1481
aI723
aI12
aI1184
aI1527
aI152
aI382
aI1919
aI12
aI379
aI1820
aI1187
aI970
aI1017
aI549
aI1899
aI152
aI379
aI1294
aI970
aI379
aI1822
aI1670
aI970
aI1804
aI330
asg4
I33
sa(dp69
g2
(lp70
I379
aI2034
aI611
aI1621
aI1532
aI22
aI1839
aI260
aI761
aI1105
aI608
aI152
aI9
aI1832
aI789
aI1362
aI1514
aI806
aI487
aI1871
aI1609
aI424
aI354
aI1930
aI152
aI77
aI1152
aI12
aI1220
aI1931
aI249
aI1826
aI385
aI986
aI116
aI1498
aI1757
aI330
asg4
I34
sa(dp71
g2
(lp72
I379
aI959
aI2021
aI12
aI216
aI128
aI1481
aI1930
aI1530
aI330
asg4
I35
sa(dp73
g2
(lp74
I379
aI1845
aI505
aI1930
aI83
aI1959
aI229
aI1481
aI1930
aI1066
aI1930
aI1201
aI330
asg4
I36
sa(dp75
g2
(lp76
I1571
aI701
aI505
aI795
aI152
aI782
aI1626
aI26
aI1481
aI1455
aI1468
aI330
asg4
I37
sa(dp77
g2
(lp78
I1344
aI1489
aI1481
aI1759
aI152
aI680
aI1184
aI332
aI1282
aI1147
aI389
aI1066
aI1199
aI5
aI148
aI152
aI1736
aI467
aI251
aI467
aI152
aI1781
aI1764
aI1042
aI1199
aI1853
aI760
aI813
aI981
aI1003
aI720
aI330
asg4
I38
sa(dp79
g2
(lp80
I1637
aI1216
aI971
aI1514
aI1479
aI487
aI152
aI379
aI1896
aI29
aI1914
aI152
aI763
aI1084
aI1834
aI1481
aI289
aI1182
aI1184
aI698
aI1542
aI1712
aI152
aI2009
aI680
aI1084
aI964
aI1481
aI2019
aI1712
aI330
asg4
I39
sa(dp81
g2
(lp82
I379
aI124
aI1838
aI363
aI1481
aI1653
aI354
aI1565
aI152
aI1930
aI1309
aI2005
aI970
aI420
aI330
asg4
I40
sa(dp83
g2
(lp84
I1739
aI763
aI152
aI760
aI1330
aI666
aI748
aI1826
aI1481
aI1392
aI1238
aI1489
aI530
aI152
aI1781
aI107
aI1826
aI1140
aI912
aI1066
aI1320
aI208
aI1921
aI330
asg4
I41
sa(dp85
g2
(lp86
I729
aI970
aI780
aI505
aI872
aI502
aI1003
aI1007
aI152
aI762
aI505
aI1073
aI1481
aI274
aI1591
aI1489
aI1007
aI127
aI423
aI944
aI760
aI1227
aI1703
aI318
aI152
aI1294
aI970
aI379
aI780
aI398
aI970
aI1601
aI330
asg4
I42
sa(dp87
g2
(lp88
I1730
aI1154
aI152
aI379
aI1145
aI505
aI1993
aI915
aI760
aI755
aI970
aI379
aI741
aI353
aI33
aI1459
aI161
aI330
asg4
I43
sa(dp89
g2
(lp90
I113
aI152
aI1781
aI359
aI379
aI939
aI505
aI725
aI86
aI2048
aI585
aI1020
aI379
aI1700
aI970
aI1494
aI354
aI1930
aI152
aI1481
aI1855
aI1066
aI379
aI80
aI624
aI1003
aI245
aI781
aI330
asg4
I44
sa(dp91
g2
(lp92
I969
aI1238
aI1213
aI1930
aI653
aI1768
aI413
aI449
aI541
aI354
aI2014
aI1220
aI354
aI42
aI1856
aI1213
aI1018
aI1598
aI1768
aI1020
aI379
aI1546
aI970
aI1930
aI125
aI1198
aI1184
aI614
aI330
asg4
I45
sa(dp93
g2
(lp94
I1315
aI505
aI1704
aI1152
aI241
aI793
aI152
aI1304
aI843
aI1055
aI1930
aI760
aI1055
aI1930
aI1315
aI1879
aI1933
aI1199
aI1984
aI1419
aI543
aI1003
aI379
aI428
aI665
aI1020
aI1315
aI505
aI133
aI344
aI357
aI152
aI1987
aI330
asg4
I46
sa(dp95
g2
(lp96
I1184
aI1449
aI636
aI1764
aI1930
aI209
aI330
asg4
I47
sa(dp97
g2
(lp98
I989
aI1481
aI1469
aI42
aI439
aI1427
aI669
aI342
aI356
aI1353
aI1003
aI1221
aI1847
aI810
aI1514
aI1458
aI487
aI1018
aI1645
aI1018
aI1930
aI330
asg4
I48
sa(dp99
g2
(lp100
I1236
aI1005
aI505
aI500
aI152
aI1881
aI1484
aI970
aI1681
aI335
aI1417
aI325
aI152
aI774
aI354
aI105
aI1363
aI286
aI152
aI1609
aI379
aI64
aI638
aI426
aI298
aI1025
aI330
asg4
I49
sa(dp101
g2
(lp102
I917
aI1133
aI127
aI578
aI328
aI1740
aI70
aI763
aI49
aI594
aI379
aI1938
aI970
aI38
aI760
aI917
aI277
aI1481
aI288
aI1003
aI161
aI1046
aI1486
aI1066
aI1870
aI316
aI1712
aI946
aI330
asg4
I50
sa(dp103
g2
(lp104
I379
aI783
aI513
aI1207
aI1659
aI843
aI146
aI760
aI42
aI1723
aI1481
aI1142
aI754
aI1406
aI1930
aI760
aI379
aI2000
aI777
aI1142
aI754
aI1406
aI1762
aI1184
aI698
aI354
aI1083
aI728
aI1618
aI1199
aI1090
aI1403
aI330
asg4
I51
sa(dp105
g2
(lp106
I358
aI1033
aI112
aI1066
aI1573
aI1184
aI788
aI743
aI1483
aI1033
aI77
aI1481
aI154
aI1911
aI1003
aI1045
aI597
aI330
asg4
I52
sa(dp107
g2
(lp108
I1976
aI102
aI1764
aI1481
aI379
aI299
aI970
aI1561
aI1231
aI1336
aI1779
aI152
aI989
aI1481
aI662
aI496
aI130
aI932
aI426
aI379
aI1791
aI152
aI354
aI1774
aI379
aI1587
aI505
aI623
aI1746
aI1747
aI379
aI532
aI1883
aI970
aI1705
aI900
aI934
aI658
aI809
aI330
asg4
I53
sa(dp109
g2
(lp110
I1922
aI1991
aI969
aI379
aI555
aI1078
aI331
aI1774
aI1594
aI354
aI379
aI370
aI1343
aI1940
aI698
aI1542
aI1504
aI596
aI1184
aI1890
aI295
aI354
aI379
aI370
aI1343
aI1481
aI1142
aI754
aI1347
aI330
asg4
I54
sa(dp111
g2
(lp112
I2009
aI49
aI1481
aI1781
aI1879
aI1202
aI222
aI596
aI1023
aI596
aI1087
aI1148
aI2038
aI754
aI1720
aI974
aI152
aI379
aI346
aI970
aI1256
aI291
aI969
aI596
aI379
aI525
aI330
aI491
asg4
I55
sa(dp113
g2
(lp114
I379
aI841
aI1938
aI505
aI1476
aI970
aI1930
aI612
aI1930
aI1066
aI1602
aI379
aI91
aI243
aI1873
aI595
aI228
aI859
aI1307
aI379
aI465
aI426
aI379
aI725
aI1533
aI970
aI228
aI859
aI902
aI354
aI252
aI330
asg4
I56
sa(dp115
g2
(lp116
I861
aI161
aI1481
aI1112
aI1843
aI152
aI379
aI725
aI1612
aI1934
aI1066
aI600
aI354
aI702
aI330
asg4
I57
sa(dp117
g2
(lp118
I1639
aI1192
aI272
aI1785
aI488
aI689
aI1983
aI379
aI1317
aI692
aI1158
aI152
aI1774
aI175
aI35
aI339
aI354
aI180
aI330
asg4
I58
sa(dp119
g2
(lp120
I1639
aI1192
aI272
aI1785
aI488
aI689
aI1983
aI379
aI1317
aI692
aI1158
aI152
aI1774
aI175
aI35
aI339
aI354
aI180
aI330
asg4
I59
sa(dp121
g2
(lp122
I379
aI1689
aI152
aI379
aI1080
aI354
aI50
aI2000
aI1712
aI1159
aI152
aI926
aI1930
aI970
aI379
aI1930
aI485
aI760
aI153
aI1613
aI379
aI1181
aI330
asg4
I60
sa(dp123
g2
(lp124
I379
aI1049
aI805
aI1482
aI1930
aI1066
aI1930
aI969
aI1096
aI152
aI158
aI1481
aI476
aI1035
aI354
aI1930
aI330
asg4
I61
sa(dp125
g2
(lp126
I379
aI2
aI152
aI379
aI1543
aI970
aI379
aI1914
aI970
aI110
aI505
aI1939
aI1647
aI1274
aI152
aI473
aI1184
aI920
aI714
aI1909
aI970
aI372
aI1066
aI1583
aI454
aI152
aI1795
aI152
aI760
aI1799
aI330
asg4
I62
sa(dp127
g2
(lp128
I379
aI2042
aI493
aI264
aI354
aI2042
aI227
aI152
aI379
aI756
aI179
aI1468
aI970
aI1603
aI893
aI152
aI1481
aI1965
aI1489
aI7
aI930
aI152
aI379
aI546
aI534
aI250
aI1781
aI458
aI1924
aI969
aI1263
aI152
aI2014
aI546
aI81
aI30
aI354
aI1919
aI330
asg4
I63
sa(dp129
g2
(lp130
I2014
aI1481
aI484
aI1018
aI1764
aI644
aI505
aI1885
aI152
aI1184
aI1185
aI862
aI152
aI354
aI1697
aI152
aI1930
aI152
aI307
aI1066
aI2014
aI415
aI152
aI211
aI202
aI45
aI330
asg4
I64
sa(dp131
g2
(lp132
I1228
aI1930
aI42
aI256
aI1764
aI1481
aI1166
aI1618
aI379
aI635
aI1514
aI1446
aI152
aI42
aI256
aI760
aI1834
aI487
aI1100
aI1397
aI1956
aI970
aI1199
aI1683
aI1872
aI330
asg4
I65
sa(dp133
g2
(lp134
I2014
aI744
aI1987
aI505
aI1982
aI354
aI1889
aI563
aI152
aI1774
aI1764
aI107
aI350
aI379
aI2011
aI1478
aI1793
aI220
aI1095
aI354
aI379
aI676
aI330
asg4
I66
sa(dp135
g2
(lp136
I1787
aI505
aI572
aI528
aI760
aI232
aI322
aI1879
aI1481
aI1472
aI1066
aI730
aI970
aI1140
aI2023
aI682
aI622
aI480
aI426
aI2014
aI1489
aI1784
aI1634
aI330
asg4
I67
sa(dp137
g2
(lp138
I379
aI1030
aI1481
aI107
aI1184
aI200
aI561
aI1489
aI972
aI152
aI1184
aI894
aI265
aI1209
aI664
aI1618
aI379
aI1345
aI970
aI379
aI952
aI391
aI231
aI152
aI1184
aI732
aI1320
aI354
aI379
aI1152
aI464
aI1655
aI970
aI379
aI1834
aI505
aI952
aI1894
aI330
asg4
I68
sa(dp139
g2
(lp140
I1411
aI152
aI1184
aI552
aI970
aI1978
aI1930
aI419
aI1338
aI843
aI379
aI931
aI778
aI760
aI379
aI483
aI1490
aI970
aI379
aI587
aI152
aI1953
aI1962
aI1066
aI1940
aI1076
aI1179
aI414
aI426
aI161
aI8
aI338
aI760
aI58
aI266
aI1745
aI330
asg4
I69
sa(dp141
g2
(lp142
I621
aI1229
aI1295
aI461
aI1401
aI1597
aI354
aI565
aI2009
aI152
aI96
aI994
aI878
aI505
aI2020
aI970
aI1930
aI1823
aI1451
aI152
aI598
aI1618
aI278
aI108
aI1435
aI330
asg4
I70
sa(dp143
g2
(lp144
I379
aI1431
aI950
aI152
aI379
aI334
aI1044
aI354
aI147
aI152
aI1481
aI1338
aI131
aI1930
aI143
aI970
aI579
aI1543
aI760
aI1091
aI1692
aI152
aI134
aI1489
aI1387
aI42
aI978
aI760
aI1156
aI859
aI430
aI330
asg4
I71
sa(dp145
g2
(lp146
I147
aI1152
aI1446
aI505
aI1896
aI1960
aI584
aI152
aI1638
aI426
aI1882
aI1184
aI691
aI970
aI73
aI1331
aI1960
aI14
aI1930
aI509
aI1055
aI330
asg4
I72
sa(dp147
g2
(lp148
I1869
aI1694
aI969
aI184
aI40
aI1184
aI42
aI1160
aI1844
aI916
aI1066
aI1640
aI1895
aI195
aI1568
aI835
aI109
aI976
aI152
aI903
aI1177
aI1184
aI1450
aI1489
aI887
aI1312
aI1350
aI1663
aI1970
aI1730
aI450
aI152
aI1781
aI1481
aI680
aI1184
aI1844
aI1395
aI330
asg4
I73
sa(dp149
g2
(lp150
I1084
aI379
aI1825
aI971
aI1050
aI379
aI1251
aI1367
aI111
aI1810
aI426
aI104
aI152
aI1712
aI957
aI103
aI333
aI330
asg4
I74
sa(dp151
g2
(lp152
I596
aI390
aI152
aI354
aI2014
aI1578
aI152
aI2014
aI1081
aI1066
aI281
aI622
aI82
aI760
aI119
aI760
aI1120
aI335
aI330
aI491
asg4
I75
sa(dp153
g2
(lp154
I379
aI1129
aI152
aI1774
aI1415
aI1066
aI379
aI1374
aI970
aI1600
aI152
aI1767
aI1060
aI1066
aI1235
aI925
aI1489
aI379
aI1374
aI505
aI1203
aI1053
aI152
aI1699
aI518
aI1888
aI1087
aI1316
aI152
aI1184
aI315
aI426
aI283
aI932
aI330
asg4
I76
sa(dp155
g2
(lp156
I594
aI152
aI989
aI1481
aI303
aI970
aI819
aI760
aI1258
aI162
aI760
aI674
aI1145
aI354
aI1558
aI152
aI760
aI989
aI1481
aI10
aI243
aI1394
aI162
aI217
aI330
asg4
I77
sa(dp157
g2
(lp158
I393
aI1029
aI1905
aI1227
aI1702
aI567
aI1380
aI379
aI1067
aI748
aI1503
aI884
aI970
aI63
aI760
aI1700
aI1836
aI152
aI379
aI1977
aI505
aI286
aI763
aI330
asg4
I78
sa(dp159
g2
(lp160
I730
aI558
aI748
aI1656
aI494
aI77
aI1764
aI1481
aI379
aI725
aI1066
aI369
aI144
aI1406
aI1930
aI426
aI1184
aI507
aI342
aI1083
aI330
asg4
I79
sa(dp161
g2
(lp162
I2009
aI350
aI239
aI748
aI1520
aI152
aI688
aI1066
aI1199
aI1310
aI1921
aI354
aI379
aI234
aI152
aI1764
aI1081
aI426
aI680
aI1066
aI1152
aI379
aI939
aI505
aI1896
aI1557
aI504
aI330
asg4
I80
sa(dp163
g2
(lp164
I1913
aI1481
aI678
aI567
aI152
aI384
aI730
aI970
aI1264
aI1789
aI969
aI379
aI1547
aI970
aI99
aI1841
aI152
aI1020
aI1930
aI152
aI869
aI379
aI2011
aI1371
aI354
aI147
aI330
asg4
I81
sa(dp165
g2
(lp166
I1514
aI1534
aI1481
aI1184
aI1436
aI1400
aI683
aI152
aI175
aI1051
aI379
aI1866
aI1691
aI354
aI1184
aI1168
aI152
aI1562
aI379
aI2003
aI1603
aI152
aI1643
aI854
aI748
aI651
aI161
aI969
aI760
aI1911
aI152
aI760
aI1051
aI379
aI2040
aI76
aI354
aI843
aI330
aI487
asg4
I82
sa(dp167
g2
(lp168
I1184
aI198
aI1930
aI1247
aI1900
aI630
aI152
aI1184
aI472
aI970
aI1904
aI308
aI663
aI330
asg4
I83
sa(dp169
g2
(lp170
I379
aI191
aI684
aI596
aI808
aI800
aI491
aI829
aI2016
aI1764
aI1195
aI1228
aI1930
aI1502
aI1099
aI1481
aI1550
aI1153
aI88
aI1220
aI152
aI730
aI970
aI1774
aI1481
aI379
aI1363
aI146
aI1962
aI970
aI610
aI960
aI1134
aI1828
aI330
asg4
I84
sa(dp171
g2
(lp172
I1837
aI1764
aI678
aI722
aI1184
aI703
aI1228
aI350
aI1481
aI1215
aI354
aI1930
aI330
asg4
I85
sa(dp173
g2
(lp174
I596
aI1368
aI1948
aI49
aI1764
aI1066
aI278
aI1003
aI278
aI350
aI416
aI152
aI820
aI350
aI416
aI760
aI704
aI584
aI1161
aI152
aI491
aI763
aI736
aI999
aI152
aI1837
aI505
aI127
aI760
aI1670
aI1925
aI330
asg4
I86
sa(dp175
g2
(lp176
I497
aI18
aI72
aI777
aI144
aI1554
aI354
aI1930
aI152
aI2014
aI374
aI1184
aI15
aI152
aI327
aI1145
aI330
asg4
I87
sa(dp177
g2
(lp178
I596
aI1651
aI799
aI1764
aI993
aI1834
aI1145
aI1003
aI1184
aI1835
aI379
aI1373
aI970
aI1774
aI1913
aI1764
aI48
aI1342
aI354
aI105
aI1930
aI698
aI1020
aI1554
aI152
aI491
aI763
aI219
aI72
aI152
aI1294
aI970
aI1017
aI1297
aI330
asg4
I88
sa(dp179
g2
(lp180
I1191
aI1514
aI1719
aI487
aI968
aI18
aI72
aI152
aI1294
aI760
aI1670
aI1925
aI970
aI1017
aI1297
aI152
aI1764
aI1338
aI1184
aI640
aI970
aI653
aI1930
aI426
aI2014
aI1986
aI1717
aI1303
aI1066
aI1487
aI453
aI330
asg4
I89
sa(dp181
g2
(lp182
I1142
aI754
aI1930
aI1554
aI1848
aI1764
aI1481
aI1022
aI12
aI72
aI152
aI354
aI1184
aI179
aI970
aI673
aI748
aI1764
aI1326
aI417
aI204
aI1147
aI1947
aI1391
aI760
aI583
aI152
aI1595
aI330
aI278
aI72
aI1766
aI1066
aI1481
aI1775
aI1750
aI1971
asg4
I90
sa(dp183
g2
(lp184
I1849
aI1366
aI354
aI379
aI1159
aI970
aI927
aI505
aI1071
aI1800
aI1109
aI1504
aI716
aI968
aI831
aI1504
aI516
aI767
aI152
aI792
aI1941
aI1018
aI868
aI864
aI152
aI1556
aI1066
aI1268
aI969
aI1938
aI922
aI760
aI1953
aI1902
aI1003
aI1811
aI973
aI330
asg4
I91
sa(dp185
g2
(lp186
I125
aI1306
aI1580
aI354
aI1930
aI152
aI379
aI1071
aI1800
aI722
aI927
aI1495
aI1184
aI1118
aI1860
aI261
aI760
aI1715
aI379
aI929
aI970
aI1018
aI853
aI1018
aI1930
aI711
aI419
aI330
asg4
I92
sa(dp187
g2
(lp188
I1061
aI1900
aI1481
aI1260
aI125
aI379
aI1071
aI1800
aI1481
aI794
aI1618
aI1580
aI1489
aI1184
aI1117
aI1183
aI354
aI1930
aI330
asg4
I93
sa(dp189
g2
(lp190
I379
aI647
aI1481
aI20
aI1351
aI609
aI1618
aI379
aI1443
aI988
aI1504
aI1393
aI1030
aI152
aI145
aI536
aI152
aI1722
aI1942
aI760
aI1278
aI1954
aI330
asg4
I94
sa(dp191
g2
(lp192
I379
aI647
aI1481
aI20
aI1351
aI609
aI1618
aI379
aI1443
aI988
aI1504
aI1393
aI1030
aI152
aI145
aI536
aI152
aI1722
aI1942
aI760
aI1278
aI1954
aI330
asg4
I95
sa(dp193
g2
(lp194
I1370
aI505
aI97
aI1003
aI713
aI152
aI1184
aI985
aI943
aI1320
aI354
aI1632
aI760
aI171
aI152
aI1764
aI2029
aI1066
aI379
aI533
aI709
aI152
aI379
aI1786
aI596
aI709
aI970
aI527
aI491
aI1066
aI272
aI379
aI1641
aI330
asg4
I96
sa(dp195
g2
(lp196
I161
aI1151
aI1481
aI625
aI354
aI55
aI379
aI1048
aI970
aI379
aI215
aI713
aI152
aI1774
aI1481
aI885
aI426
aI379
aI725
aI515
aI354
aI1930
aI1020
aI379
aI381
aI354
aI379
aI1648
aI1844
aI330
asg4
I97
sa(dp197
g2
(lp198
I1199
aI82
aI1447
aI760
aI1445
aI1947
aI1501
aI1074
aI152
aI457
aI1199
aI849
aI1918
aI1947
aI1730
aI980
aI505
aI685
aI760
aI1176
aI1713
aI1518
aI1066
aI1780
aI243
aI1200
aI1593
aI330
asg4
I98
sa(dp199
g2
(lp200
I294
aI1764
aI1481
aI1184
aI394
aI426
aI1935
aI330
aI1311
aI867
aI1329
aI939
aI468
aI351
aI330
asg4
I99
sa(dp201
g2
(lp202
I273
aI1439
aI379
aI1098
aI1238
aI969
aI379
aI736
aI273
aI463
aI970
aI379
aI1832
aI1999
aI970
aI379
aI952
aI468
aI152
aI1269
aI970
aI379
aI1599
aI44
aI867
aI1999
aI760
aI1356
aI1270
aI330
asg4
I100
sa(dp203
g2
(lp204
I426
aI332
aI970
aI379
aI1237
aI152
aI340
aI847
aI968
aI1184
aI875
aI650
aI970
aI913
aI996
aI152
aI1440
aI1930
aI1398
aI760
aI1184
aI61
aI1000
aI1893
aI968
aI1481
aI379
aI656
aI970
aI379
aI676
aI330
asg4
I101
sa(dp205
g2
(lp206
I1363
aI1082
aI152
aI1037
aI185
aI2014
aI1879
aI1481
aI379
aI1363
aI354
aI1184
aI731
aI1515
aI970
aI1116
aI412
aI1781
aI1764
aI114
aI1184
aI1136
aI969
aI379
aI913
aI1030
aI1228
aI1184
aI1615
aI690
aI127
aI1678
aI1660
aI505
aI1193
aI354
aI1930
aI330
asg4
I102
sa(dp207
g2
(lp208
I1995
aI1020
aI379
aI1002
aI183
aI1726
aI152
aI1033
aI604
aI589
aI596
aI417
aI2010
aI152
aI491
aI379
aI554
aI152
aI1997
aI354
aI1930
aI760
aI48
aI1701
aI330
asg4
I103
sa(dp209
g2
(lp210
I354
aI1930
aI152
aI379
aI1624
aI554
aI1422
aI379
aI721
aI1212
aI1966
aI400
aI970
aI462
aI492
aI1329
aI379
aI468
aI970
aI1930
aI330
asg4
I104
sa(dp211
g2
(lp212
I551
aI1621
aI152
aI379
aI619
aI1799
aI760
aI755
aI1781
aI427
aI379
aI22
aI354
aI2014
aI1879
aI152
aI763
aI379
aI1420
aI22
aI1808
aI2027
aI1184
aI906
aI9
aI97
aI1674
aI354
aI1184
aI596
aI775
aI881
aI330
aI491
asg4
I105
sa(dp213
g2
(lp214
I861
aI161
aI1481
aI379
aI1806
aI970
aI379
aI725
aI22
aI354
aI1930
aI152
aI1034
aI355
aI330
asg4
I106
sa(dp215
g2
(lp216
I1621
aI22
aI1806
aI1598
aI161
aI22
aI152
aI1639
aI698
aI14
aI1440
aI1930
aI152
aI969
aI1157
aI330
aI1930
aI330
asg4
I107
sa(dp217
g2
(lp218
I639
aI1481
aI1184
aI1769
aI699
aI1781
aI1764
aI1481
aI32
aI1489
aI898
aI1583
aI330
asg4
I108
sa(dp219
g2
(lp220
I379
aI1499
aI1604
aI379
aI1559
aI1072
aI760
aI938
aI378
aI1781
aI1752
aI629
aI1523
aI267
aI760
aI1539
aI1606
aI1066
aI379
aI952
aI375
aI354
aI1930
aI330
asg4
I109
sa(dp221
g2
(lp222
I1214
aI1481
aI427
aI354
aI1930
aI1018
aI1184
aI1893
aI970
aI379
aI939
aI162
aI665
aI330
asg4
I110
sa(dp223
g2
(lp224
I354
aI1930
aI152
aI379
aI1587
aI970
aI1930
aI1893
aI970
aI379
aI1086
aI505
aI122
aI1283
aI52
aI1781
aI1764
aI446
aI526
aI1481
aI1320
aI481
aI1184
aI6
aI354
aI75
aI1488
aI833
aI152
aI23
aI330
asg4
I111
sa(dp225
g2
(lp226
I874
aI1481
aI240
aI1711
aI1489
aI379
aI311
aI907
aI426
aI1816
aI969
aI52
aI1018
aI1355
aI1018
aI1930
aI152
aI497
aI379
aI665
aI1086
aI505
aI122
aI1626
aI1184
aI1048
aI526
aI354
aI761
aI2033
aI330
asg4
I112
sa(dp227
g2
(lp228
I874
aI1481
aI240
aI1711
aI1489
aI379
aI311
aI907
aI426
aI1816
aI969
aI52
aI1018
aI1355
aI1018
aI1930
aI152
aI497
aI379
aI665
aI1086
aI505
aI122
aI1626
aI1184
aI1048
aI526
aI354
aI761
aI2033
aI330
asg4
I113
sa(dp229
g2
(lp230
I379
aI344
aI1981
aI970
aI293
aI1566
aI505
aI25
aI970
aI2014
aI529
aI152
aI127
aI1254
aI1566
aI152
aI820
aI1184
aI1548
aI561
aI184
aI497
aI1248
aI505
aI2022
aI1058
aI1898
aI1642
aI1066
aI580
aI2014
aI1898
aI1970
aI760
aI1281
aI2014
aI1805
aI426
aI127
aI330
asg4
I114
sa(dp231
g2
(lp232
I2009
aI989
aI1481
aI738
aI1623
aI184
aI748
aI379
aI1203
aI127
aI505
aI2017
aI1481
aI1481
aI1604
aI760
aI748
aI293
aI1566
aI152
aI1184
aI721
aI243
aI553
aI539
aI152
aI1481
aI469
aI426
aI379
aI341
aI330
asg4
I115
sa(dp233
g2
(lp234
I1627
aI1628
aI274
aI748
aI293
aI1566
aI505
aI759
aI115
aI1879
aI1481
aI969
aI1757
aI1930
aI152
aI125
aI1774
aI2014
aI1879
aI535
aI969
aI1184
aI967
aI683
aI748
aI1481
aI1110
aI970
aI16
aI330
asg4
I116
sa(dp235
g2
(lp236
I638
aI354
aI2015
aI354
aI158
aI243
aI1748
aI354
aI1930
aI152
aI1107
aI1657
aI505
aI672
aI229
aI1764
aI1481
aI1633
aI330
asg4
I117
sa(dp237
g2
(lp238
I442
aI2018
aI1764
aI84
aI379
aI1524
aI1943
aI748
aI1107
aI1657
aI968
aI9
aI933
aI684
aI1481
aI1731
aI1732
aI968
aI1481
aI1480
aI61
aI977
aI290
aI354
aI1608
aI330
asg4
I118
sa(dp239
g2
(lp240
I1107
aI1657
aI152
aI1930
aI152
aI1481
aI1564
aI1489
aI1987
aI970
aI1764
aI926
aI977
aI1137
aI1930
aI419
aI354
aI1747
aI354
aI1930
aI316
aI1228
aI1930
aI330
asg4
I119
sa(dp241
g2
(lp242
I279
aI1481
aI747
aI1184
aI887
aI954
aI970
aI661
aI468
aI387
aI1850
aI918
aI726
aI152
aI154
aI1941
aI1018
aI596
aI1579
aI379
aI1926
aI330
aI491
asg4
I120
sa(dp243
g2
(lp244
I2014
aI1481
aI93
aI354
aI1681
aI573
aI399
aI829
aI1579
aI379
aI1926
aI152
aI1423
aI426
aI2002
aI243
aI638
aI1850
aI918
aI726
aI152
aI1481
aI93
aI330
asg4
I121
sa(dp245
g2
(lp246
I918
aI1481
aI1887
aI354
aI958
aI354
aI844
aI1930
aI760
aI385
aI1363
aI698
aI354
aI11
aI1066
aI335
aI354
aI399
aI426
aI379
aI1930
aI1410
aI220
aI330
asg4
I122
sa(dp247
g2
(lp248
I379
aI3
aI1473
aI354
aI1629
aI1066
aI1366
aI1965
aI1518
aI1066
aI1944
aI505
aI1004
aI1930
aI1246
aI152
aI497
aI807
aI1385
aI1066
aI1126
aI1625
aI1066
aI379
aI911
aI760
aI1021
aI1851
aI1066
aI281
aI379
aI821
aI330
asg4
I123
sa(dp249
g2
(lp250
I1831
aI505
aI702
aI773
aI1631
aI1003
aI379
aI1289
aI330
aI243
aI1246
aI1944
aI1563
aI1066
aI287
aI2009
aI1764
aI678
aI280
aI1199
aI1984
aI821
aI330
asg4
I124
sa(dp251
g2
(lp252
I1300
aI649
aI1481
aI1327
aI564
aI1781
aI1415
aI1066
aI379
aI672
aI1575
aI1189
aI330
asg4
I125
sa(dp253
g2
(lp254
I1469
aI757
aI243
aI1066
aI1930
aI711
aI591
aI354
aI871
aI152
aI1300
aI354
aI1955
aI321
aI854
aI330
asg4
I126
sa(dp255
g2
(lp256
I909
aI1764
aI1880
aI1094
aI1271
aI426
aI1300
aI970
aI379
aI1364
aI1126
aI505
aI1159
aI152
aI992
aI1003
aI379
aI725
aI1094
aI1271
aI748
aI735
aI354
aI1949
aI354
aI1930
aI330
asg4
I127
sa(dp257
g2
(lp258
I909
aI1764
aI1880
aI1094
aI1271
aI426
aI1300
aI970
aI379
aI1364
aI1126
aI505
aI1159
aI152
aI992
aI1003
aI379
aI725
aI1094
aI1271
aI748
aI735
aI354
aI1949
aI354
aI1930
aI330
asg4
I128
sa(dp259
g2
(lp260
I1949
aI243
aI1241
aI1094
aI1271
aI435
aI330
aI2029
aI1440
aI1930
aI509
aI354
aI490
aI1066
aI1162
aI505
aI1440
aI1930
aI509
aI330
asg4
I129
sa(dp261
g2
(lp262
I125
aI1051
aI152
aI1018
aI942
aI1132
aI350
aI1355
aI152
aI379
aI127
aI760
aI1208
aI970
aI1359
aI1544
aI152
aI1497
aI1771
aI152
aI596
aI722
aI1184
aI319
aI1438
aI901
aI1495
aI730
aI970
aI379
aI377
aI923
aI2031
aI354
aI1247
aI445
aI1159
aI330
aI491
asg4
I130
sa(dp263
g2
(lp264
I2038
aI1233
aI1481
aI403
aI1978
aI354
aI379
aI1441
aI1359
aI1544
aI133
aI354
aI515
aI693
aI354
aI1535
aI330
asg4
I131
sa(dp265
g2
(lp266
I1293
aI354
aI379
aI418
aI152
aI426
aI379
aI1140
aI708
aI129
aI760
aI1238
aI826
aI505
aI1018
aI1916
aI152
aI1481
aI1027
aI1712
aI830
aI152
aI336
aI1559
aI152
aI1184
aI2000
aI889
aI152
aI760
aI161
aI712
aI57
aI152
aI1680
aI253
aI330
asg4
I132
sa(dp267
g2
(lp268
I379
aI1940
aI243
aI1893
aI153
aI970
aI379
aI1897
aI1901
aI748
aI1879
aI1246
aI396
aI1481
aI1965
aI1489
aI772
aI1032
aI27
aI1027
aI152
aI1781
aI77
aI1953
aI379
aI725
aI1072
aI970
aI769
aI676
aI1066
aI1919
aI1184
aI1788
aI330
asg4
I133
sa(dp269
g2
(lp270
I379
aI725
aI1072
aI1066
aI1919
aI1184
aI702
aI1897
aI821
aI152
aI342
aI28
aI1917
aI330
aI27
aI1027
aI152
aI1342
aI1826
aI1390
aI1498
aI1056
aI1018
aI596
aI1184
aI1596
aI1640
aI491
aI354
aI1142
aI465
aI754
aI730
aI330
asg4
I134
sa(dp271
g2
(lp272
I1897
aI897
aI27
aI1027
aI152
aI1184
aI97
aI378
aI760
aI342
aI28
aI1581
aI152
aI1481
aI1338
aI1066
aI360
aI1159
aI1018
aI379
aI725
aI1072
aI1066
aI1919
aI1184
aI702
aI821
aI330
asg4
I135
sa(dp273
g2
(lp274
I1404
aI152
aI975
aI1018
aI1493
aI505
aI60
aI152
aI1325
aI379
aI468
aI506
aI354
aI1323
aI1384
aI1066
aI379
aI1381
aI34
aI1941
aI1018
aI379
aI1206
aI1238
aI1486
aI354
aI653
aI1930
aI330
asg4
I136
sa(dp275
g2
(lp276
I170
aI1303
aI1066
aI694
aI379
aI117
aI1375
aI725
aI152
aI158
aI1556
aI125
aI39
aI1928
aI1930
aI152
aI379
aI814
aI1289
aI330
aI1749
aI1057
aI1952
aI125
aI1184
aI86
aI821
aI330
asg4
I137
sa(dp277
g2
(lp278
I379
aI153
aI1303
aI1066
aI1338
aI302
aI624
aI1003
aI379
aI1313
aI354
aI657
aI828
aI354
aI1813
aI970
aI1320
aI39
aI1928
aI1930
aI152
aI1952
aI1020
aI1343
aI1930
aI698
aI1542
aI330
asg4
I138
sa(dp279
g2
(lp280
I596
aI1826
aI1764
aI278
aI1184
aI1596
aI1848
aI1775
aI1075
aI1003
aI379
aI1704
aI152
aI491
aI763
aI85
aI1912
aI152
aI127
aI970
aI1763
aI1097
aI1724
aI152
aI760
aI730
aI970
aI233
aI505
aI1896
aI1302
aI330
asg4
I139
sa(dp281
g2
(lp282
I491
aI379
aI164
aI971
aI1764
aI1481
aI1772
aI1066
aI466
aI379
aI804
aI1956
aI970
aI161
aI200
aI1381
aI1452
aI152
aI491
aI763
aI832
aI2030
aI970
aI1108
aI1934
aI152
aI1184
aI665
aI1215
aI1489
aI136
aI1898
aI1696
aI392
aI1840
aI1379
aI330
asg4
I140
sa(dp283
g2
(lp284
I1765
aI330
aI62
aI262
aI330
aI1824
aI152
aI758
aI243
aI1814
aI330
aI152
aI1184
aI1970
aI970
aI379
aI1360
aI1066
aI379
aI1861
aI152
aI1564
aI1493
aI970
aI596
aI1801
aI1425
aI970
aI379
aI1465
aI760
aI1199
aI499
aI354
aI379
aI1164
aI1644
aI330
aI491
asg4
I141
sa(dp285
g2
(lp286
I379
aI1041
aI152
aI1215
aI1489
aI654
aI770
aI354
aI1608
aI354
aI1930
aI152
aI643
aI1495
aI1184
aI19
aI1109
aI1003
aI1092
aI970
aI884
aI970
aI1803
aI354
aI1608
aI760
aI2039
aI1376
aI379
aI406
aI939
aI330
asg4
I142
sa(dp287
g2
(lp288
I1516
aI817
aI152
aI1925
aI915
aI970
aI379
aI36
aI1270
aI426
aI706
aI760
aI1708
aI1020
aI309
aI128
aI21
aI152
aI135
aI1836
aI1687
aI1481
aI1300
aI130
aI497
aI596
aI350
aI1481
aI843
aI1140
aI419
aI1003
aI1184
aI1114
aI771
aI1968
aI1266
aI330
aI491
asg4
I143
sa(dp289
g2
(lp290
I797
aI763
aI2014
aI1481
aI1300
aI633
aI1003
aI379
aI1257
aI970
aI219
aI1668
aI152
aI1781
aI1481
aI154
aI1941
aI1018
aI1012
aI1742
aI330
asg4
I144
sa(dp291
g2
(lp292
I638
aI219
aI1668
aI354
aI441
aI152
aI1048
aI330
aI152
aI2014
aI542
aI1962
aI125
aI221
aI354
aI379
aI1245
aI468
aI1066
aI992
aI1605
aI231
aI4
aI152
aI760
aI158
aI1286
aI379
aI231
aI1066
aI949
aI426
aI1978
aI1930
aI1864
aI1184
aI2025
aI330
asg4
I145
sa(dp293
g2
(lp294
I350
aI1481
aI861
aI641
aI812
aI1018
aI1346
aI152
aI524
aI760
aI702
aI1897
aI921
aI1585
aI2014
aI1363
aI1848
aI152
aI150
aI2014
aI268
aI354
aI1930
aI152
aI1481
aI1066
aI987
aI379
aI725
aI702
aI1897
aI152
aI1901
aI152
aI426
aI1246
aI354
aI1930
aI330
asg4
I146
sa(dp295
g2
(lp296
I653
aI1930
aI152
aI1930
aI1504
aI1901
aI1778
aI969
aI725
aI702
aI1897
aI1390
aI330
asg4
I147
sa(dp297
g2
(lp298
I1987
aI968
aI379
aI1695
aI125
aI379
aI702
aI1897
aI696
aI295
aI354
aI1930
aI152
aI916
aI219
aI1985
aI538
aI1031
aI505
aI1476
aI1066
aI1560
aI1112
aI1843
aI969
aI379
aI1149
aI821
aI330
asg4
I148
sa(dp299
g2
(lp300
I969
aI1809
aI330
aI1930
aI152
aI1930
aI152
aI379
aI702
aI1897
aI696
aI169
aI1930
aI965
aI125
aI79
aI1618
aI409
aI194
aI152
aI926
aI1051
aI349
aI153
aI1893
aI330
asg4
I149
sa(dp301
g2
(lp302
I1521
aI763
aI379
aI491
aI230
aI970
aI220
aI760
aI601
aI491
aI1481
aI733
aI1711
aI1003
aI510
aI748
aI1764
aI1481
aI1262
aI248
aI152
aI379
aI1531
aI1712
aI201
aI863
aI330
asg4
I150
sa(dp303
g2
(lp304
I1610
aI840
aI1965
aI257
aI196
aI1352
aI278
aI1184
aI1753
aI150
aI2014
aI1646
aI379
aI1449
aI515
aI330
asg4
I151
sa(dp305
g2
(lp306
I208
aI746
aI679
aI1610
aI840
aI505
aI566
aI152
aI196
aI1352
aI152
aI1781
aI1293
aI1481
aI1184
aI798
aI1545
aI127
aI970
aI176
aI2020
aI152
aI9
aI845
aI842
aI152
aI2028
aI82
aI152
aI537
aI379
aI2037
aI354
aI1184
aI1038
aI1851
aI317
aI995
aI330
asg4
I152
sa(dp307
g2
(lp308
I638
aI354
aI1454
aI152
aI605
aI330
aI152
aI1352
aI643
aI1518
aI354
aI1946
aI152
aI1589
aI330
aI152
aI829
aI2014
aI1463
aI970
aI149
aI82
aI760
aI160
aI1290
aI360
aI2014
aI1184
aI1903
aI330
asg4
I153
sa(dp309
g2
(lp310
I379
aI858
aI1481
aI684
aI125
aI1199
aI1140
aI296
aI1087
aI1140
aI471
aI953
aI354
aI379
aI1648
aI1844
aI1781
aI547
aI350
aI969
aI1757
aI1930
aI152
aI1930
aI330
asg4
I154
sa(dp311
g2
(lp312
I1313
aI259
aI760
aI1622
aI805
aI748
aI379
aI1244
aI1764
aI1184
aI373
aI970
aI1930
aI698
aI152
aI760
aI350
aI1879
aI1299
aI1199
aI1817
aI969
aI1447
aI1930
aI1498
aI698
aI497
aI350
aI1299
aI1184
aI226
aI970
aI1930
aI711
aI1309
aI1618
aI379
aI269
aI330
asg4
I155
sa(dp313
g2
(lp314
I354
aI1930
aI152
aI498
aI62
aI455
aI1481
aI926
aI354
aI1184
aI1140
aI243
aI602
aI1163
aI344
aI1737
aI152
aI23
aI330
asg4
I156
sa(dp315
g2
(lp316
I354
aI1796
aI152
aI497
aI2042
aI62
aI455
aI1481
aI926
aI354
aI379
aI1690
aI1689
aI969
aI632
aI1930
aI152
aI1930
aI152
aI2014
aI1481
aI969
aI2014
aI465
aI1066
aI589
aI2014
aI42
aI745
aI152
aI1062
aI1227
aI330
asg4
I157
sa(dp317
g2
(lp318
I455
aI152
aI1781
aI779
aI1018
aI1184
aI498
aI969
aI936
aI756
aI824
aI760
aI379
aI42
aI1723
aI1626
aI152
aI278
aI678
aI360
aI2014
aI846
aI951
aI482
aI1930
aI505
aI596
aI860
aI67
aI330
aI491
asg4
I158
sa(dp319
g2
(lp320
I1893
aI970
aI379
aI1247
aI1211
aI970
aI1298
aI1429
aI1514
aI1998
aI487
aI1240
aI426
aI434
aI1020
aI853
aI1267
aI760
aI668
aI330
asg4
I159
sa(dp321
g2
(lp322
I1215
aI354
aI1930
aI1018
aI1184
aI1491
aI970
aI379
aI1832
aI1298
aI569
aI1211
aI152
aI1998
aI1481
aI379
aI1896
aI1512
aI1432
aI354
aI379
aI316
aI152
aI1003
aI1978
aI1930
aI711
aI1893
aI1546
aI1930
aI760
aI1518
aI330
asg4
I160
sa(dp323
g2
(lp324
I2014
aI1879
aI1293
aI360
aI853
aI495
aI1066
aI1987
aI426
aI1386
aI1020
aI1998
aI1832
aI133
aI760
aI1879
aI1050
aI379
aI1211
aI1020
aI818
aI207
aI330
asg4
I161
sa(dp325
g2
(lp326
I1998
aI1925
aI915
aI1729
aI1013
aI466
aI379
aI1398
aI596
aI1206
aI1860
aI152
aI1124
aI760
aI1471
aI1872
aI330
asg4
I162
sa(dp327
g2
(lp328
I214
aI905
aI2014
aI1016
aI2006
aI354
aI1150
aI1401
aI1155
aI1920
aI1585
aI1865
aI922
aI118
aI1140
aI977
aI329
aI698
aI59
aI1020
aI379
aI1700
aI970
aI1210
aI354
aI1218
aI330
asg4
I163
sa(dp329
g2
(lp330
I214
aI905
aI2014
aI1016
aI2006
aI354
aI1150
aI1401
aI1155
aI1920
aI1585
aI1865
aI922
aI118
aI1140
aI977
aI329
aI698
aI59
aI1020
aI379
aI1700
aI970
aI1210
aI354
aI1218
aI330
asg4
I164
sa(dp331
g2
(lp332
I379
aI816
aI1927
aI1898
aI426
aI244
aI1481
aI1215
aI354
aI1930
aI354
aI956
aI1489
aI1059
aI760
aI1444
aI386
aI330
asg4
I165
sa(dp333
g2
(lp334
I379
aI816
aI1927
aI1898
aI426
aI244
aI1481
aI1215
aI354
aI1930
aI354
aI956
aI1489
aI1059
aI760
aI1444
aI386
aI330
asg4
I166
sa(dp335
g2
(lp336
I379
aI816
aI1927
aI1898
aI426
aI244
aI1481
aI1215
aI354
aI1930
aI354
aI956
aI1489
aI1059
aI760
aI1444
aI386
aI330
asg4
I167
sa(dp337
g2
(lp338
I1721
aI998
aI152
aI1930
aI152
aI1781
aI1481
aI800
aI1196
aI761
aI2041
aI505
aI464
aI425
aI426
aI1184
aI42
aI1858
aI1489
aI168
aI238
aI823
aI1337
aI1951
aI803
aI152
aI249
aI1764
aI82
aI969
aI1396
aI1070
aI1947
aI1184
aI1206
aI1222
aI330
asg4
I168
sa(dp339
g2
(lp340
I1363
aI698
aI152
aI379
aI22
aI1556
aI1066
aI836
aI1273
aI330
aI616
aI970
aI379
aI1700
aI970
aI216
aI1020
aI761
aI2041
aI426
aI2014
aI306
aI970
aI1119
aI152
aI379
aI1507
aI900
aI388
aI1018
aI1715
aI1733
aI314
aI1791
aI760
aI2038
aI695
aI330
asg4
I169
sa(dp341
g2
(lp342
I616
aI1609
aI1184
aI1621
aI22
aI1363
aI698
aI426
aI547
aI1119
aI330
asg4
I170
sa(dp343
g2
(lp344
I350
aI1481
aI1937
aI1489
aI379
aI1930
aI526
aI970
aI655
aI883
aI152
aI379
aI1965
aI257
aI426
aI379
aI665
aI223
aI1781
aI1764
aI197
aI1003
aI1122
aI1671
aI150
aI2014
aI94
aI1508
aI330
asg4
I171
sa(dp345
g2
(lp346
I680
aI748
aI379
aI997
aI101
aI1128
aI1192
aI1246
aI1003
aI223
aI1481
aI851
aI1066
aI1184
aI1344
aI152
aI690
aI82
aI1481
aI571
aI426
aI208
aI1405
aI881
aI330
asg4
I172
sa(dp347
g2
(lp348
I1679
aI438
aI1590
aI1964
aI760
aI1093
aI1481
aI2004
aI1710
aI559
aI2032
aI330
aI152
aI298
aI1941
aI426
aI1199
aI512
aI152
aI426
aI1440
aI1930
aI509
aI354
aI892
aI760
aI1704
aI354
aI1184
aI459
aI1380
aI1184
aI939
aI1970
aI354
aI1510
aI1679
aI330
asg4
I173
sa(dp349
g2
(lp350
I990
aI243
aI1241
aI1964
aI760
aI320
aI1879
aI1293
aI511
aI1440
aI1930
aI711
aI970
aI1710
aI505
aI312
aI1018
aI1269
aI970
aI379
aI1313
aI459
aI330
asg4
I174
sa(dp351
g2
(lp352
I1964
aI760
aI1093
aI152
aI1003
aI1440
aI1930
aI509
aI354
aI1365
aI490
aI152
aI360
aI1679
aI1320
aI354
aI641
aI1707
aI1018
aI106
aI760
aI204
aI1262
aI152
aI188
aI760
aI1760
aI330
asg4
I175
sa(dp353
g2
(lp354
I298
aI1295
aI1807
aI1807
aI1665
aI152
aI1184
aI1714
aI152
aI1140
aI243
aI982
aI1178
aI354
aI596
aI2042
aI468
aI1504
aI258
aI1913
aI1087
aI379
aI1529
aI1549
aI330
aI491
asg4
I176
sa(dp355
g2
(lp356
I379
aI346
aI970
aI1807
aI1807
aI1481
aI118
aI1489
aI498
aI1492
aI298
aI152
aI1781
aI1481
aI816
aI330
asg4
I177
sa(dp357
g2
(lp358
I1807
aI1807
aI1665
aI1504
aI1184
aI1036
aI395
aI346
aI1489
aI1492
aI298
aI152
aI2014
aI1481
aI1184
aI246
aI152
aI1667
aI1893
aI970
aI379
aI1709
aI152
aI1184
aI1770
aI152
aI54
aI1168
aI970
aI379
aI1519
aI1969
aI330
asg4
I178
sa(dp359
g2
(lp360
I379
aI361
aI1664
aI752
aI1481
aI855
aI1066
aI730
aI970
aI364
aI186
aI193
aI1003
aI1453
aI152
aI641
aI1018
aI379
aI1929
aI186
aI367
aI152
aI379
aI468
aI186
aI371
aI760
aI379
aI1103
aI186
aI189
aI330
asg4
I179
sa(dp361
g2
(lp362
I354
aI2012
aI152
aI1608
aI152
aI822
aI1184
aI1829
aI1453
aI1475
aI152
aI388
aI1003
aI367
aI152
aI1481
aI1320
aI354
aI631
aI177
aI463
aI330
asg4
I180
sa(dp363
g2
(lp364
I1127
aI152
aI1184
aI203
aI970
aI379
aI739
aI354
aI379
aI1136
aI152
aI1481
aI379
aI1965
aI1715
aI970
aI477
aI354
aI50
aI680
aI330
asg4
I181
sa(dp365
g2
(lp366
I2014
aI486
aI1129
aI904
aI1978
aI219
aI1018
aI2014
aI820
aI1426
aI1585
aI2014
aI1764
aI1184
aI521
aI1607
aI1747
aI678
aI731
aI1542
aI152
aI760
aI2014
aI1764
aI837
aI426
aI1127
aI330
asg4
I182
sa(dp367
g2
(lp368
I379
aI1648
aI1844
aI1481
aI730
aI970
aI349
aI316
aI1141
aI491
aI496
aI491
aI497
aI1930
aI316
aI1369
aI379
aI263
aI1066
aI427
aI379
aI559
aI1875
aI1172
aI354
aI1757
aI1930
aI354
aI376
aI330
asg4
I183
sa(dp369
g2
(lp370
I379
aI2018
aI666
aI379
aI1892
aI676
aI1764
aI496
aI465
aI1066
aI1028
aI1832
aI1172
aI1066
aI1815
aI379
aI890
aI152
aI2009
aI763
aI379
aI1950
aI559
aI1875
aI1172
aI1205
aI1764
aI1277
aI144
aI1794
aI1781
aI446
aI468
aI813
aI330
asg4
I184
sa(dp371
g2
(lp372
I379
aI1892
aI676
aI1481
aI354
aI379
aI1644
aI970
aI427
aI1184
aI1867
aI559
aI1875
aI1172
aI343
aI1020
aI93
aI1292
aI1068
aI242
aI426
aI1125
aI1019
aI1066
aI1481
aI468
aI813
aI977
aI813
aI317
aI402
aI330
asg4
I185
sa(dp373
g2
(lp374
I362
aI1754
aI152
aI1184
aI1460
aI1276
aI407
aI1781
aI734
aI167
aI1054
aI760
aI1146
aI1474
aI760
aI896
aI1576
aI1495
aI1184
aI405
aI431
aI152
aI541
aI624
aI125
aI1481
aI777
aI1911
aI335
aI460
aI330
asg4
I186
sa(dp375
g2
(lp376
I1228
aI1165
aI275
aI2004
aI1184
aI848
aI760
aI1184
aI456
aI1618
aI379
aI945
aI1661
aI784
aI969
aI379
aI556
aI323
aI1651
aI1056
aI1542
aI152
aI2014
aI1764
aI1481
aI839
aI121
aI731
aI2014
aI604
aI114
aI161
aI330
asg4
I187
sa(dp377
g2
(lp378
I350
aI1481
aI678
aI1514
aI570
aI487
aI426
aI379
aI154
aI152
aI491
aI763
aI1382
aI991
aI152
aI1294
aI970
aI1143
aI505
aI784
aI971
aI1211
aI330
asg4
I188
sa(dp379
g2
(lp380
I1143
aI505
aI725
aI784
aI1481
aI427
aI354
aI1930
aI969
aI379
aI1188
aI970
aI379
aI1343
aI970
aI1174
aI1018
aI379
aI742
aI970
aI379
aI973
aI970
aI379
aI1413
aI330
asg4
I189
sa(dp381
g2
(lp382
I1143
aI505
aI725
aI784
aI1481
aI427
aI354
aI1930
aI969
aI379
aI1188
aI970
aI379
aI1343
aI970
aI1174
aI1018
aI379
aI742
aI970
aI379
aI973
aI970
aI379
aI1413
aI330
asg4
I190
sa(dp383
g2
(lp384
I354
aI1930
aI152
aI379
aI645
aI513
aI1259
aI1481
aI1132
aI1495
aI213
aI1489
aI1877
aI760
aI590
aI330
asg4
I191
sa(dp385
g2
(lp386
I513
aI733
aI814
aI1930
aI485
aI152
aI1003
aI1140
aI834
aI969
aI172
aI173
aI970
aI379
aI199
aI330
asg4
I192
sa(dp387
g2
(lp388
I379
aI513
aI152
aI1774
aI1891
aI379
aI1511
aI1020
aI1930
aI1077
aI152
aI1764
aI1481
aI1052
aI861
aI379
aI939
aI505
aI271
aI1181
aI330
asg4
I193
sa(dp389
g2
(lp390
I379
aI1204
aI152
aI735
aI969
aI276
aI330
aI1930
aI152
aI1930
aI152
aI1481
aI597
aI46
aI505
aI1923
aI1863
aI1066
aI1199
aI557
aI1930
aI1957
aI354
aI1930
aI316
aI1779
aI152
aI568
aI1003
aI730
aI354
aI1818
aI748
aI1293
aI735
aI1363
aI698
aI330
asg4
I194
sa(dp391
g2
(lp392
I1725
aI660
aI1481
aI638
aI354
aI1340
aI152
aI1819
aI152
aI354
aI1930
aI760
aI541
aI1184
aI1056
aI150
aI2014
aI132
aI637
aI152
aI1764
aI731
aI1198
aI1618
aI285
aI330
asg4
I195
sa(dp393
g2
(lp394
I1725
aI660
aI1481
aI638
aI354
aI1340
aI152
aI1819
aI152
aI354
aI1930
aI760
aI541
aI1184
aI1056
aI150
aI2014
aI132
aI637
aI152
aI1764
aI731
aI1198
aI1618
aI285
aI330
asg4
I196
sa(dp395
g2
(lp396
I2009
aI1876
aI1910
aI152
aI2014
aI643
aI1518
aI1509
aI760
aI1725
aI660
aI1481
aI1184
aI684
aI14
aI687
aI330
asg4
I197
sa(dp397
g2
(lp398
I760
aI125
aI1342
aI2014
aI1295
aI1775
aI853
aI1536
aI544
aI1228
aI2014
aI1930
aI87
aI1609
aI426
aI596
aI1857
aI31
aI152
aI491
aI350
aI1481
aI1293
aI1402
aI1066
aI1764
aI2014
aI1295
aI1184
aI33
aI1142
aI368
aI1106
aI970
aI2014
aI724
aI1537
aI395
aI330
asg4
I198
sa(dp399
g2
(lp400
I2014
aI825
aI2014
aI1341
aI152
aI596
aI141
aI1481
aI1206
aI152
aI491
aI1618
aI724
aI1537
aI152
aI379
aI37
aI766
aI1295
aI1489
aI1571
aI326
aI354
aI379
aI1025
aI596
aI1857
aI31
aI330
aI491
asg4
I199
sa(dp401
g2
(lp402
I760
aI125
aI1342
aI2014
aI1295
aI1775
aI853
aI1536
aI544
aI1228
aI2014
aI1930
aI87
aI1609
aI426
aI596
aI1857
aI31
aI152
aI491
aI350
aI1481
aI1293
aI1402
aI1066
aI1764
aI2014
aI1295
aI1184
aI33
aI1142
aI368
aI1106
aI970
aI2014
aI724
aI1537
aI395
aI330
asg4
I200
sa(dp403
g2
(lp404
I1720
aI1761
aI1514
aI1247
aI152
aI638
aI354
aI1930
aI487
asg4
I201
sa(dp405
g2
(lp406
I1753
aI1930
aI1481
aI1184
aI1930
aI880
aI970
aI1184
aI90
aI1654
aI1489
aI1720
aI1761
aI152
aI379
aI1247
aI1279
aI330
asg4
I202
sa(dp407
g2
(lp408
I379
aI140
aI443
aI779
aI656
aI1065
aI343
aI1020
aI1207
aI379
aI856
aI212
aI609
aI1066
aI1818
aI426
aI379
aI725
aI515
aI354
aI822
aI1930
aI698
aI330
asg4
I203
sa(dp409
g2
(lp410
I379
aI443
aI152
aI1215
aI1489
aI1101
aI1111
aI760
aI1652
aI701
aI152
aI992
aI1755
aI1018
aI379
aI596
aI620
aI1449
aI1940
aI491
aI354
aI1930
aI330
asg4
I204
sa(dp411
g2
(lp412
I523
aI947
aI1293
aI359
aI969
aI238
aI856
aI1003
aI1871
aI816
aI1477
aI330
asg4
I205
sa(dp413
g2
(lp414
I354
aI2014
aI42
aI300
aI152
aI523
aI152
aI671
aI330
aI787
aI1428
aI152
aI1363
aI912
aI1650
aI969
aI1184
aI1977
aI969
aI596
aI379
aI1950
aI970
aI82
aI152
aI491
aI697
aI1489
aI1716
aI53
aI445
aI330
asg4
I206
sa(dp415
g2
(lp416
I461
aI352
aI421
aI581
aI1481
aI1930
aI330
asg4
I207
sa(dp417
g2
(lp418
I1718
aI235
aI152
aI1781
aI517
aI421
aI581
aI152
aI763
aI379
aI1113
aI970
aI527
aI1020
aI379
aI735
aI968
aI1990
aI152
aI418
aI152
aI937
aI152
aI1357
aI1936
aI968
aI1842
aI1066
aI857
aI217
aI1596
aI1184
aI501
aI1066
aI577
aI330
asg4
I208
sa(dp419
g2
(lp420
I581
aI760
aI347
aI1481
aI638
aI447
aI1142
aI754
aI1140
aI1056
aI411
aI354
aI1930
aI968
aI1852
aI354
aI42
aI1723
aI760
aI347
aI354
aI170
aI123
aI152
aI216
aI330
asg4
I209
sa(dp421
g2
(lp422
I379
aI1011
aI560
aI1066
aI379
aI910
aI665
aI970
aI1559
aI266
aI166
aI1066
aI1190
aI1462
aI785
aI426
aI617
aI1618
aI963
aI1619
aI1552
aI330
asg4
I210
sa(dp423
g2
(lp424
I963
aI680
aI1764
aI1930
aI1442
aI152
aI760
aI350
aI1303
aI1066
aI704
aI379
aI1253
aI970
aI1265
aI1489
aI1930
aI2036
aI1184
aI698
aI330
asg4
I211
sa(dp425
g2
(lp426
I2014
aI1481
aI379
aI811
aI395
aI354
aI596
aI650
aI970
aI478
aI152
aI491
aI379
aI822
aI1930
aI152
aI51
aI1463
aI1257
aI748
aI1481
aI1308
aI1014
aI1018
aI379
aI939
aI505
aI725
aI489
aI760
aI1481
aI576
aI1052
aI147
aI505
aI377
aI1135
aI1305
aI330
asg4
I212
sa(dp427
g2
(lp428
I350
aI805
aI379
aI1001
aI122
aI970
aI379
aI1249
aI969
aI379
aI1693
aI760
aI1184
aI1735
aI1618
aI379
aI540
aI1584
aI1407
aI29
aI489
aI650
aI970
aI478
aI969
aI379
aI1470
aI330
asg4
I213
sa.