(lp0
(dp1
S'bad'
p2
(lp3
I45
aI24
aI75
aI39
aI67
aI58
aI22
aI15
aI5
aI23
aI42
aI63
aI43
aI62
aI7
aI11
aI21
aI55
aI53
aI66
asS'good'
p4
I150
sS'question'
p5
(lp6
I1099
aI1481
aI1505
aI1712
aI1555
aI863
aI1971
asS'question_id'
p7
I3
sa(dp8
g2
(lp9
I45
aI57
aI11
aI70
aI19
aI76
aI80
aI61
aI12
aI75
aI55
aI30
aI5
aI31
aI7
aI47
aI3
aI51
aI63
aI66
asg4
I151
sg5
(lp10
I1099
aI1481
aI379
aI684
aI970
aI1352
aI505
aI665
aI1971
asg7
I4
sa(dp11
g2
(lp12
I50
aI38
aI7
aI31
aI14
aI43
aI75
aI22
aI65
aI27
aI4
aI6
aI58
aI11
aI41
aI78
aI52
aI20
aI53
aI67
asg4
I152
sg5
(lp13
I1099
aI2020
aI1145
aI1481
aI941
aI1003
aI1971
asg7
I5
sa(dp14
g2
(lp15
I70
aI76
aI13
aI3
aI39
aI21
aI50
aI22
aI57
aI23
aI42
aI69
aI12
aI30
aI25
aI14
aI29
aI32
aI24
aI78
asg4
I153
sg5
(lp16
I829
aI1481
aI1352
aI638
aI1971
asg7
I6
sa(dp17
g2
(lp18
I28
aI10
aI23
aI8
aI69
aI51
aI29
aI53
aI30
aI41
aI19
aI31
aI13
aI15
aI16
aI43
aI70
aI48
aI71
aI76
asg4
I154
sg5
(lp19
I497
aI1481
aI379
aI677
aI796
aI858
aI547
aI1971
asg7
I7
sa(dp20
g2
(lp21
I3
aI51
aI15
aI33
aI4
aI32
aI71
aI10
aI19
aI50
aI20
aI6
aI54
aI46
aI5
aI11
aI57
aI62
aI80
aI66
asg4
I155
sg5
(lp22
I121
aI1464
aI278
aI379
aI677
aI796
aI858
aI305
aI379
aI269
aI1971
asg7
I8
sa(dp23
g2
(lp24
I25
aI29
aI80
aI63
aI39
aI54
aI4
aI41
aI11
aI76
aI71
aI78
aI42
aI19
aI53
aI28
aI59
aI38
aI75
aI7
asg4
I156
sg5
(lp25
I497
aI278
aI62
aI455
aI541
aI1971
asg7
I9
sa(dp26
g2
(lp27
I38
aI22
aI40
aI66
aI3
aI27
aI15
aI80
aI54
aI59
aI76
aI70
aI13
aI8
aI30
aI78
aI45
aI32
aI57
aI20
asg4
I157
sg5
(lp28
I121
aI278
aI62
aI455
aI541
aI1971
asg7
I10
sa(dp29
g2
(lp30
I39
aI23
aI53
aI69
aI46
aI45
aI41
aI24
aI26
aI38
aI58
aI12
aI67
aI78
aI14
aI51
aI40
aI20
aI27
aI30
asg4
I158
sg5
(lp31
I1774
aI1481
aI379
aI725
aI1349
aI748
aI62
aI455
aI1481
aI354
aI1971
asg7
I11
sa(dp32
g2
(lp33
I19
aI70
aI55
aI30
aI23
aI15
aI58
aI57
aI59
aI11
aI10
aI7
aI25
aI56
aI42
aI52
aI50
aI78
aI61
aI28
asg4
I159
sg5
(lp34
I1099
aI278
aI1998
aI1658
aI426
aI1971
asg7
I12
sa(dp35
g2
(lp36
I67
aI76
aI54
aI75
aI52
aI47
aI26
aI21
aI5
aI27
aI24
aI71
aI58
aI33
aI62
aI63
aI40
aI50
aI8
aI28
asg4
I160
sg5
(lp37
I497
aI1481
aI379
aI1432
aI1998
aI992
aI1971
asg7
I13
sa(dp38
g2
(lp39
I4
aI6
aI33
aI58
aI53
aI25
aI72
aI59
aI32
aI8
aI11
aI52
aI78
aI5
aI24
aI61
aI65
aI39
aI40
aI19
asg4
I161
sg5
(lp40
I829
aI1481
aI1998
aI505
aI133
aI1971
asg7
I14
sa(dp41
g2
(lp42
I10
aI38
aI14
aI23
aI70
aI5
aI3
aI65
aI59
aI61
aI32
aI6
aI33
aI28
aI31
aI12
aI21
aI51
aI55
aI16
asg4
I162
sg5
(lp43
I1781
aI1481
aI1998
aI505
aI215
aI2018
aI977
aI1208
aI1971
asg7
I15
sa(dp44
g2
(lp45
I8
aI12
aI80
aI76
aI27
aI3
aI9
aI40
aI7
aI15
aI50
aI42
aI59
aI52
aI75
aI31
aI45
aI61
aI4
aI69
asg4
I163
sg5
(lp46
I121
aI731
aI278
aI730
aI59
aI1018
aI1184
aI1865
aI163
aI1971
asg7
I16
sa(dp47
g2
(lp48
I55
aI25
aI70
aI16
aI33
aI38
aI39
aI22
aI15
aI71
aI50
aI5
aI41
aI78
aI76
aI6
aI66
aI65
aI3
aI62
asg4
I164
sg5
(lp49
I829
aI278
aI1865
aI163
aI59
aI1971
asg7
I18
sa(dp50
g2
(lp51
I61
aI50
aI48
aI46
aI5
aI78
aI32
aI23
aI10
aI76
aI70
aI39
aI54
aI43
aI11
aI45
aI26
aI53
aI72
aI67
asg4
I165
sg5
(lp52
I1781
aI1215
aI379
aI816
aI1927
aI1432
aI1971
asg7
I19
sa(dp53
g2
(lp54
I41
aI19
aI31
aI33
aI12
aI14
aI8
aI51
aI38
aI50
aI27
aI66
aI23
aI53
aI54
aI45
aI24
aI9
aI72
aI40
asg4
I166
sg5
(lp55
I497
aI1481
aI379
aI816
aI1927
aI1215
aI1971
asg7
I20
sa(dp56
g2
(lp57
I7
aI23
aI65
aI16
aI39
aI51
aI5
aI72
aI29
aI58
aI27
aI3
aI32
aI33
aI67
aI53
aI19
aI63
aI50
aI31
asg4
I167
sg5
(lp58
I829
aI1481
aI379
aI816
aI1927
aI1215
aI1971
asg7
I21
sa(dp59
g2
(lp60
I39
aI43
aI8
aI15
aI24
aI38
aI61
aI50
aI66
aI57
aI10
aI31
aI71
aI45
aI70
aI33
aI18
aI80
aI29
aI12
asg4
I168
sg5
(lp61
I1099
aI1481
aI1337
aI1951
aI803
aI505
aI1200
aI970
aI82
aI1971
asg7
I22
sa(dp62
g2
(lp63
I32
aI13
aI46
aI56
aI52
aI80
aI40
aI72
aI65
aI3
aI63
aI28
aI30
aI59
aI9
aI31
aI53
aI58
aI27
aI69
asg4
I169
sg5
(lp64
I1099
aI1481
aI1119
aI360
aI970
aI1971
asg7
I23
sa(dp65
g2
(lp66
I13
aI6
aI32
aI71
aI45
aI27
aI41
aI14
aI9
aI39
aI33
aI63
aI52
aI19
aI4
aI61
aI50
aI78
aI12
aI55
asg4
I170
sg5
(lp67
I1781
aI547
aI1119
aI1971
asg7
I24
sa(dp68
g2
(lp69
I48
aI29
aI3
aI66
aI58
aI80
aI45
aI61
aI21
aI30
aI50
aI75
aI15
aI70
aI69
aI67
aI42
aI40
aI63
aI6
asg4
I171
sg5
(lp70
I1781
aI1481
aI379
aI1965
aI257
aI429
aI1630
aI354
aI223
aI1971
asg7
I25
sa(dp71
g2
(lp72
I5
aI19
aI69
aI20
aI39
aI12
aI22
aI27
aI28
aI61
aI41
aI47
aI30
aI45
aI53
aI56
aI58
aI65
aI72
aI29
asg4
I172
sg5
(lp73
I1099
aI1200
aI970
aI82
aI278
aI223
aI1295
aI1971
asg7
I26
sa(dp74
g2
(lp75
I21
aI70
aI30
aI55
aI71
aI53
aI29
aI41
aI20
aI57
aI75
aI25
aI18
aI43
aI8
aI40
aI31
aI10
aI80
aI6
asg4
I173
sg5
(lp76
I1099
aI971
aI1481
aI1964
aI760
aI1093
aI354
aI1971
asg7
I27
sa(dp77
g2
(lp78
I27
aI11
aI25
aI54
aI40
aI26
aI8
aI41
aI61
aI19
aI7
aI14
aI67
aI31
aI5
aI50
aI76
aI46
aI56
aI29
asg4
I174
sg5
(lp79
I829
aI1481
aI379
aI1145
aI1964
aI760
aI1093
aI1653
aI1971
asg7
I28
sa(dp80
g2
(lp81
I26
aI22
aI72
aI30
aI58
aI55
aI20
aI3
aI11
aI18
aI78
aI65
aI80
aI25
aI59
aI42
aI47
aI28
aI39
aI76
asg4
I175
sg5
(lp82
I1099
aI1481
aI1964
aI760
aI1093
aI505
aI1365
aI728
aI1971
asg7
I29
sa(dp83
g2
(lp84
I56
aI6
aI51
aI25
aI16
aI42
aI38
aI3
aI32
aI63
aI76
aI39
aI45
aI53
aI24
aI48
aI13
aI58
aI10
aI22
asg4
I176
sg5
(lp85
I1099
aI1025
aI675
aI1807
aI1807
aI1665
aI1971
asg7
I30
sa(dp86
g2
(lp87
I47
aI41
aI54
aI16
aI50
aI53
aI22
aI8
aI25
aI58
aI27
aI43
aI5
aI59
aI61
aI65
aI55
aI63
aI10
aI62
asg4
I177
sg5
(lp88
I1099
aI498
aI1481
aI1617
aI1018
aI1807
aI1807
aI1665
aI1712
aI346
aI1971
asg7
I31
sa(dp89
g2
(lp90
I40
aI4
aI50
aI80
aI26
aI58
aI61
aI11
aI72
aI21
aI42
aI5
aI29
aI23
aI15
aI33
aI55
aI67
aI43
aI76
asg4
I178
sg5
(lp91
I1066
aI1099
aI1553
aI1574
aI278
aI1807
aI1807
aI1665
aI1415
aI1971
asg7
I32
sa(dp92
g2
(lp93
I58
aI41
aI48
aI46
aI9
aI38
aI51
aI62
aI16
aI29
aI30
aI8
aI32
aI27
aI54
aI15
aI4
aI5
aI76
aI13
asg4
I179
sg5
(lp94
I367
aI1481
aI379
aI186
aI970
aI1099
aI1971
asg7
I33
sa(dp95
g2
(lp96
I80
aI54
aI78
aI31
aI47
aI48
aI22
aI19
aI6
aI75
aI72
aI61
aI7
aI42
aI25
aI39
aI65
aI52
aI16
aI43
asg4
I180
sg5
(lp97
I1099
aI316
aI1481
aI367
aI193
aI1003
aI1971
asg7
I38
sa(dp98
g2
(lp99
I32
aI3
aI55
aI14
aI62
aI24
aI63
aI5
aI31
aI19
aI59
aI56
aI9
aI67
aI30
aI75
aI15
aI48
aI26
aI72
asg4
I181
sg5
(lp100
I1099
aI1481
aI379
aI205
aI225
aI970
aI1184
aI1127
aI1971
asg7
I39
sa(dp101
g2
(lp102
I24
aI4
aI42
aI23
aI80
aI30
aI78
aI54
aI57
aI63
aI67
aI14
aI55
aI56
aI53
aI48
aI15
aI3
aI51
aI5
asg4
I182
sg5
(lp103
I121
aI1481
aI1127
aI1868
aI1971
asg7
I40
sa(dp104
g2
(lp105
I29
aI3
aI38
aI63
aI57
aI69
aI12
aI40
aI16
aI42
aI8
aI55
aI76
aI67
aI6
aI19
aI66
aI18
aI24
aI72
asg4
I183
sg5
(lp106
I497
aI1481
aI379
aI559
aI1875
aI1172
aI427
aI1971
asg7
I41
sa(dp107
g2
(lp108
I38
aI10
aI5
aI67
aI26
aI19
aI75
aI71
aI54
aI63
aI66
aI47
aI23
aI25
aI78
aI22
aI45
aI16
aI40
aI33
asg4
I184
sg5
(lp109
I1099
aI1272
aI970
aI890
aI278
aI379
aI559
aI1875
aI1172
aI1573
aI1971
asg7
I42
sa(dp110
g2
(lp111
I13
aI14
aI24
aI48
aI21
aI75
aI52
aI26
aI16
aI32
aI7
aI51
aI58
aI20
aI55
aI39
aI19
aI28
aI72
aI6
asg4
I185
sg5
(lp112
I1781
aI1481
aI379
aI697
aI970
aI379
aI559
aI1875
aI1172
aI1971
asg7
I43
sa(dp113
g2
(lp114
I33
aI26
aI56
aI4
aI11
aI10
aI48
aI15
aI18
aI72
aI8
aI24
aI47
aI53
aI22
aI13
aI42
aI39
aI75
aI6
asg4
I186
sg5
(lp115
I1099
aI531
aI1514
aI1219
aI487
aI278
aI407
aI1146
aI1474
aI1609
aI1971
asg7
I45
sa(dp116
g2
(lp117
I69
aI53
aI72
aI71
aI57
aI20
aI21
aI62
aI41
aI65
aI59
aI54
aI12
aI32
aI61
aI78
aI58
aI15
aI27
aI56
asg4
I187
sg5
(lp118
I1099
aI1272
aI970
aI1184
aI1372
aI1481
aI1184
aI784
aI1971
asg7
I46
sa(dp119
g2
(lp120
I21
aI27
aI78
aI14
aI19
aI39
aI50
aI32
aI3
aI24
aI29
aI71
aI20
aI61
aI4
aI28
aI31
aI38
aI16
aI69
asg4
I188
sg5
(lp121
I1003
aI1099
aI316
aI1481
aI379
aI784
aI193
aI1971
asg7
I47
sa(dp122
g2
(lp123
I56
aI23
aI76
aI26
aI3
aI38
aI63
aI10
aI71
aI22
aI12
aI39
aI54
aI59
aI70
aI13
aI5
aI11
aI29
aI32
asg4
I189
sg5
(lp124
I497
aI1481
aI379
aI725
aI784
aI1215
aI1971
asg7
I48
sa(dp125
g2
(lp126
I23
aI13
aI12
aI43
aI9
aI25
aI59
aI65
aI46
aI41
aI15
aI39
aI26
aI7
aI38
aI45
aI62
aI10
aI32
aI58
asg4
I190
sg5
(lp127
I829
aI1481
aI379
aI725
aI784
aI1215
aI1971
asg7
I50
sa(dp128
g2
(lp129
I55
aI47
aI26
aI62
aI53
aI11
aI71
aI39
aI58
aI50
aI78
aI61
aI9
aI75
aI43
aI13
aI80
aI33
aI45
aI32
asg4
I191
sg5
(lp130
I354
aI1099
aI698
aI278
aI379
aI725
aI513
aI485
aI1390
aI777
aI723
aI1971
asg7
I51
sa(dp131
g2
(lp132
I28
aI71
aI40
aI61
aI27
aI63
aI4
aI62
aI54
aI50
aI15
aI72
aI47
aI19
aI18
aI26
aI55
aI21
aI69
aI33
asg4
I192
sg5
(lp133
I121
aI853
aI834
aI1481
aI354
aI379
aI1751
aI970
aI1184
aI513
aI1971
asg7
I52
sa(dp134
g2
(lp135
I52
aI76
aI7
aI33
aI10
aI51
aI20
aI11
aI67
aI69
aI24
aI21
aI71
aI9
aI80
aI12
aI62
aI58
aI63
aI41
asg4
I193
sg5
(lp136
I121
aI1500
aI278
aI379
aI513
aI600
aI1971
asg7
I53
sa(dp137
g2
(lp138
I20
aI70
aI38
aI45
aI15
aI18
aI62
aI13
aI52
aI12
aI61
aI50
aI69
aI11
aI48
aI63
aI23
aI39
aI33
aI80
asg4
I194
sg5
(lp139
I121
aI853
aI597
aI46
aI983
aI634
aI1481
aI989
aI1779
aI1971
asg7
I54
sa(dp140
g2
(lp141
I19
aI69
aI33
aI54
aI63
aI12
aI6
aI9
aI45
aI57
aI43
aI50
aI16
aI18
aI24
aI72
aI13
aI52
aI40
aI53
asg4
I195
sg5
(lp142
I829
aI1481
aI1725
aI660
aI638
aI1971
asg7
I55
sa(dp143
g2
(lp144
I69
aI21
aI62
aI76
aI46
aI40
aI12
aI50
aI29
aI16
aI26
aI65
aI70
aI78
aI55
aI59
aI20
aI15
aI18
aI33
asg4
I196
sg5
(lp145
I497
aI1481
aI1725
aI660
aI638
aI1971
asg7
I56
sa(dp146
g2
(lp147
I51
aI70
aI11
aI31
aI13
aI14
aI56
aI59
aI21
aI16
aI42
aI12
aI3
aI9
aI41
aI25
aI18
aI69
aI78
aI58
asg4
I197
sg5
(lp148
I1099
aI1481
aI1725
aI660
aI505
aI1662
aI408
aI1971
asg7
I57
sa(dp149
g2
(lp150
I40
aI75
aI27
aI53
aI6
aI52
aI43
aI14
aI76
aI45
aI62
aI67
aI32
aI46
aI42
aI13
aI59
aI15
aI47
aI33
asg4
I198
sg5
(lp151
I354
aI1099
aI1025
aI1481
aI724
aI1537
aI379
aI672
aI395
aI1971
asg7
I58
sa(dp152
g2
(lp153
I11
aI24
aI51
aI42
aI23
aI9
aI78
aI31
aI65
aI56
aI38
aI69
aI22
aI13
aI70
aI32
aI48
aI66
aI18
aI72
asg4
I199
sg5
(lp154
I1781
aI1295
aI379
aI499
aI970
aI724
aI1537
aI1971
asg7
I59
sa(dp155
g2
(lp156
I10
aI57
aI43
aI31
aI76
aI33
aI59
aI55
aI71
aI48
aI18
aI56
aI80
aI47
aI39
aI67
aI27
aI21
aI32
aI9
asg4
I200
sg5
(lp157
I1099
aI698
aI1481
aI379
aI1349
aI1857
aI31
aI292
aI1971
asg7
I61
sa(dp158
g2
(lp159
I58
aI72
aI24
aI21
aI42
aI61
aI12
aI5
aI28
aI31
aI27
aI25
aI52
aI53
aI9
aI43
aI56
aI30
aI51
aI48
asg4
I201
sg5
(lp160
I497
aI1481
aI1279
aI1720
aI1761
aI638
aI1971
asg7
I62
sa(dp161
g2
(lp162
I27
aI40
aI50
aI75
aI78
aI24
aI11
aI16
aI3
aI23
aI30
aI26
aI4
aI43
aI28
aI12
aI58
aI5
aI19
aI67
asg4
I202
sg5
(lp163
I1099
aI850
aI1481
aI1720
aI1761
aI1971
asg7
I63
sa(dp164
g2
(lp165
I52
aI59
aI22
aI23
aI72
aI57
aI50
aI6
aI18
aI38
aI26
aI51
aI58
aI76
aI25
aI4
aI3
aI10
aI5
aI41
asg4
I203
sg5
(lp166
I1099
aI838
aI278
aI379
aI140
aI443
aI1295
aI1971
asg7
I65
sa(dp167
g2
(lp168
I28
aI59
aI6
aI42
aI50
aI78
aI48
aI31
aI32
aI15
aI24
aI61
aI38
aI70
aI30
aI27
aI53
aI58
aI5
aI25
asg4
I204
sg5
(lp169
I1489
aI1383
aI1481
aI379
aI140
aI443
aI1215
aI1971
asg7
I66
sa(dp170
g2
(lp171
I21
aI4
aI3
aI72
aI38
aI46
aI32
aI9
aI39
aI11
aI5
aI61
aI16
aI14
aI10
aI63
aI7
aI20
aI69
aI24
asg4
I205
sg5
(lp172
I1099
aI1272
aI970
aI257
aI1481
aI523
aI947
aI1971
asg7
I67
sa(dp173
g2
(lp174
I66
aI41
aI14
aI15
aI18
aI65
aI19
aI56
aI80
aI40
aI48
aI43
aI72
aI6
aI11
aI10
aI7
aI38
aI25
aI16
asg4
I206
sg5
(lp175
I1099
aI1481
aI523
aI947
aI505
aI1049
aI684
aI1971
asg7
I69
sa(dp176
g2
(lp177
I11
aI4
aI58
aI19
aI55
aI51
aI14
aI54
aI3
aI41
aI72
aI5
aI39
aI42
aI31
aI6
aI23
aI62
aI21
aI53
asg4
I207
sg5
(lp178
I1099
aI838
aI278
aI421
aI1852
aI1295
aI1971
asg7
I70
sa(dp179
g2
(lp180
I19
aI20
aI4
aI40
aI11
aI21
aI38
aI48
aI53
aI14
aI66
aI80
aI8
aI78
aI9
aI47
aI72
aI51
aI43
aI7
asg4
I208
sg5
(lp181
I1781
aI1481
aI421
aI581
aI505
aI517
aI1971
asg7
I71
sa(dp182
g2
(lp183
I32
aI15
aI71
aI13
aI61
aI6
aI51
aI11
aI19
aI9
aI67
aI41
aI52
aI29
aI25
aI69
aI76
aI54
aI43
aI50
asg4
I209
sg5
(lp184
I497
aI1481
aI421
aI1852
aI638
aI1971
asg7
I72
sa(dp185
g2
(lp186
I39
aI80
aI30
aI45
aI31
aI54
aI40
aI66
aI57
aI29
aI12
aI19
aI71
aI59
aI10
aI48
aI55
aI51
aI32
aI50
asg4
I210
sg5
(lp187
I1099
aI1272
aI970
aI964
aI1481
aI963
aI760
aI1552
aI1971
asg7
I75
sa(dp188
g2
(lp189
I9
aI39
aI32
aI40
aI66
aI10
aI61
aI38
aI45
aI33
aI14
aI42
aI53
aI15
aI12
aI48
aI69
aI78
aI21
aI50
asg4
I211
sg5
(lp190
I121
aI853
aI963
aI760
aI1552
aI1265
aI1481
aI989
aI1971
asg7
I76
sa(dp191
g2
(lp192
I39
aI45
aI40
aI20
aI28
aI42
aI13
aI4
aI23
aI29
aI30
aI48
aI27
aI22
aI66
aI53
aI58
aI9
aI38
aI51
asg4
I212
sg5
(lp193
I1785
aI1481
aI379
aI1084
aI650
aI970
aI478
aI1712
aI1328
aI1971
asg7
I78
sa(dp194
g2
(lp195
I13
aI59
aI31
aI41
aI32
aI57
aI40
aI24
aI7
aI10
aI22
aI3
aI25
aI26
aI33
aI46
aI27
aI58
aI29
aI69
asg4
I213
sg5
(lp196
I497
aI1481
aI379
aI1084
aI650
aI970
aI478
aI1712
aI622
aI1971
asg7
I80
sa.